
                   J E S 2  J O B  L O G  --  S Y S T E M  8 5 6 1  --  N O D E  S V S C J E S 2        

 
23.09.49 JOB07090 ---- MONDAY,    08 APR 2024 ----
23.09.49 JOB07090  IRR010I  USERID KC03AE4  IS ASSIGNED TO THIS JOB.
23.09.51 JOB07090  ICH70001I KC03AE4  LAST ACCESS AT 23:09:28 ON MONDAY, APRIL 8, 2024
23.09.51 JOB07090  $HASP373 KC03AE4A STARTED - INIT 1    - CLASS A        - SYS 8561
23.09.54 JOB07090  -                                      -----TIMINGS (MINS.)------                          -----PAGING COUNTS----
23.09.54 JOB07090  -STEPNAME PROCSTEP    RC   EXCP   CONN       TCB       SRB  CLOCK          SERV  WORKLOAD  PAGE  SWAP   VIO SWAPS
23.09.54 JOB07090  -JSTEP01              00    231     44       .00       .00     .0            21  BATCH        0     0     0     0
23.09.55 JOB07090  -JSTEP02              00     59      2       .00       .00     .0             5  BATCH        0     0     0     0
23.09.55 JOB07090  -JSTEP03              00     68      4       .00       .00     .0             6  BATCH        0     0     0     0
23.09.55 JOB07090  -KC03AE4A ENDED.  NAME-K.HETHERINGTON       TOTAL TCB CPU TIME=      .00 TOTAL ELAPSED TIME=    .0
23.09.55 JOB07090  $HASP395 KC03AE4A ENDED - RC=0000

------ JES2 JOB STATISTICS ------


  08 APR 2024 JOB EXECUTION DATE


          804 CARDS READ


        1,651 SYSOUT PRINT RECORDS


            0 SYSOUT PUNCH RECORDS


          143 SYSOUT SPOOL KBYTES


         0.09 MINUTES EXECUTION TIME
       1 //KC03AE4A JOB ,'K.HETHERINGTON',MSGCLASS=H                             JOB07090
         //*****************************************************************             
         //*                                                               *             
         //*  CSCI 465               ASSIGNMENT 6        Spring 2024       *             
         //*                                                               *             
         //*  PGM NAME: ASSIGN6.jcl                                        *             
         //*  DEVELOPER NAME: Kenneth Hetherington                         *             
         //*  DUE DATE: 04/05/2024                                         *             
         //*                                                               *             
         //*  Purpose: This assignment's objective is to give more         *             
         //*  experience using the five assembler QSAM macros, two reports *             
         //*  are to be created generating the same output with a small    *             
         //*  exception to the time value compared to assignment 5         *             
         //*                                                               *             
         //*****************************************************************             
         //*                                                                             
       2 //JSTEP01  EXEC PGM=ASMA90,PARM=ASA                                             
         //*                                                                             
         //*****************************************************************             
         //*                                                               *             
         //*   Step 1: Compile the Assembler program                       *             
         //*   Purpose: The first step here is to compile the Assembler pgm*             
         //*           using the ASMA90 compiler                           *             
         //*                                                               *             
         //*   Libraries:                                                  *             
         //*     - JSTEP01:  Job step - compiling                          *             
         //*     - SYSLIN:   where exectuable is to be written             *             
         //*     - SYSUT:    scratch data                                  *             
         //*     - SYSLIB:   Standard macro library                        *             
         //*     - SYSPRINT: Dataset where pgm src and msg are written     *             
         //*     - SYSIN:    Assembler src pgm.                            *             
         //*****************************************************************             
         //*                                                                             
       3 //SYSLIB  DD DSN=SYS1.MACLIB,DISP=SHR  // Standard macro library                
         //*                                                                             
       4 //SYSIN   DD *                                                                  
         //* End of assembler program                                                    
         //*                                                                             
       5 //SYSLIN   DD DSN=&&OBJMOD,SPACE=(CYL,(1,1)),DISP=(MOD,PASS)                    
         //*                                                                             
       6 //SYSPRINT DD SYSOUT=*                                                          
         //*                                                                             
         //* Temporary datasets for compiler work files                                  
       7 //SYSUT1   DD SPACE=(CYL,(1,1))                                                 
       8 //SYSUT2   DD SPACE=(CYL,(1,1))                                                 
       9 //SYSUT3   DD SPACE=(CYL,(1,1))                                                 
      10 //SYSUT4   DD SPACE=(CYL,(1,1))                                                 
      11 //SYSUT5   DD SPACE=(CYL,(1,1))                                                 
      12 //SYSUT6   DD SPACE=(CYL,(1,1))                                                 
      13 //SYSUT7   DD SPACE=(CYL,(1,1))                                                 
      14 //SYSUT8   DD SPACE=(CYL,(1,1))                                                 
      15 //SYSUT9   DD SPACE=(CYL,(1,1))                                                 
      16 //SYSUT10  DD SPACE=(CYL,(1,1))                                                 
      17 //SYSUT11  DD SPACE=(CYL,(1,1))                                                 
      18 //SYSUT12  DD SPACE=(CYL,(1,1))                                                 
      19 //SYSUT13  DD SPACE=(CYL,(1,1))                                                 
      20 //SYSUT14  DD SPACE=(CYL,(1,1))                                                 
      21 //SYSUT15  DD SPACE=(CYL,(1,1))                                                 
      22 //SYSMDECK DD UNIT=SYSDA,SPACE=(CYL,(1,1))                                      
         //*                                                                             
      23 //JSTEP02  EXEC PGM=HEWL,COND=(0,NE,JSTEP01)                                    
         //*                                                                             
         //*****************************************************************             
         //*                                                               *             
         //*   Step 2: bind the Assembler pgm                              *             
         //*   Purpose: Create an executable load module from the compiled *             
         //*   object                                                      *             
         //*                                                               *             
         //*   Libraries:                                                  *             
         //*     - JSTEP02:  Job step - binding                            *             
         //*     - SYSLIB:   LOAD libraries needed by loader for obj module*             
         //*     - SYSLIN:   The object module                             *             
         //*     - SYSLMOD:  Link editing/ binding, dataset to be stored   *             
         //*     - SYSPRINT: System output for viewing, printing, etc.     *             
         //*****************************************************************             
         //*                                                                             
      24 //SYSLIB   DD DSN=CEE.SCEELKEX,DISP=SHR                                         
         //*                                                                             
      25 //SYSLIN   DD DSN=&&OBJMOD,DISP=(MOD,DELETE,DELETE)                             
         //*                                                                             
      26 //SYSLMOD  DD DSN=KC03AE4.CSCI465.LOADLIB(SALESRPT),                            
         //            SPACE=(1024,(50,20,1)),                                           
         //            DSNTYPE=LIBRARY,                                                  
         //            DISP=(MOD,KEEP,KEEP)                                              
         //*                                                                             
      27 //SYSPRINT DD SYSOUT=*                                                          
         //*                                                                             
         //*****************************************************************             
         //*                                                               *             
         //*   Step 3: fetch and execute the Assembler program             *             
         //*   Purpose: Run the compiled and bound Assembler program       *             
         //*                                                               *             
         //*   Libraries:                                                  *             
         //*     - JSTEP03:  Job step - executing                          *             
         //*     - STEPLIB:  location of the program object name           *             
         //*     - INDATA:   input data card                               *             
         //*     - RPTDATA:  output data card                              *             
         //*****************************************************************             
      28 //JSTEP03  EXEC PGM=SALESRPT,COND=(0,NE,JSTEP02)                                
         //*                                                                             
      29 //STEPLIB  DD DSN=KC03AE4.CSCI465.LOADLIB,DISP=SHR                              
      30 //         DD DSN=KC02322.CSCI465.LOADLIB,DISP=SHR                              
         //*                                                                             
      31 //SALESFLE DD DSN=KC02322.CSCI465.DATAFA23(DATA6),                              
         //            DISP=SHR,                                                         
         //            SPACE=(1024,(50,20,1))                                            
         //*                                                                             
      32 //HSFLE DD DSN=&&HSFLE,SPACE=(CYL,(1,1)),DISP=(NEW,DELETE)                      
         //*                                                                             
      33 //RPTFLE   DD SYSOUT=*,DCB=(RECFM=FB,LRECL=133)                                 
ICH70001I KC03AE4  LAST ACCESS AT 23:09:28 ON MONDAY, APRIL 8, 2024
IEFA111I KC03AE4A IS USING THE FOLLOWING JOB RELATED SETTINGS:
         SWA=ABOVE,TIOT SIZE=32K,DSENQSHR=DISALLOW,GDGBIAS=JOB
IEF236I ALLOC. FOR KC03AE4A JSTEP01
IEF237I 1001 ALLOCATED TO SYSLIB
IEF237I JES2 ALLOCATED TO SYSIN
IGD101I SMS ALLOCATED TO DDNAME (SYSLIN  )
        DSN (SYS24099.T230950.RA000.KC03AE4A.OBJMOD.H01  )
        STORCLAS (TEMPSC) MGMTCLAS (        ) DATACLAS (        )
        VOL SER NOS= KCTR01                                                                
IEF237I JES2 ALLOCATED TO SYSPRINT
IGD101I SMS ALLOCATED TO DDNAME (SYSUT1  )
        DSN (SYS24099.T230950.RA000.KC03AE4A.R0135895    )
        STORCLAS (TEMPSC) MGMTCLAS (        ) DATACLAS (        )
        VOL SER NOS= KCTR01                                                                
IGD101I SMS ALLOCATED TO DDNAME (SYSUT2  )
        DSN (SYS24099.T230950.RA000.KC03AE4A.R0135896    )
        STORCLAS (TEMPSC) MGMTCLAS (        ) DATACLAS (        )
        VOL SER NOS= KCTR01                                                                
IGD101I SMS ALLOCATED TO DDNAME (SYSUT3  )
        DSN (SYS24099.T230950.RA000.KC03AE4A.R0135897    )
        STORCLAS (TEMPSC) MGMTCLAS (        ) DATACLAS (        )
        VOL SER NOS= KCTR01                                                                
IGD101I SMS ALLOCATED TO DDNAME (SYSUT4  )
        DSN (SYS24099.T230950.RA000.KC03AE4A.R0135898    )
        STORCLAS (TEMPSC) MGMTCLAS (        ) DATACLAS (        )
        VOL SER NOS= KCTR01                                                                
IGD101I SMS ALLOCATED TO DDNAME (SYSUT5  )
        DSN (SYS24099.T230950.RA000.KC03AE4A.R0135899    )
        STORCLAS (TEMPSC) MGMTCLAS (        ) DATACLAS (        )
        VOL SER NOS= KCTR01                                                                
IGD101I SMS ALLOCATED TO DDNAME (SYSUT6  )
        DSN (SYS24099.T230950.RA000.KC03AE4A.R0135900    )
        STORCLAS (TEMPSC) MGMTCLAS (        ) DATACLAS (        )
        VOL SER NOS= KCTR01                                                                
IGD101I SMS ALLOCATED TO DDNAME (SYSUT7  )
        DSN (SYS24099.T230950.RA000.KC03AE4A.R0135901    )
        STORCLAS (TEMPSC) MGMTCLAS (        ) DATACLAS (        )
        VOL SER NOS= KCTR01                                                                
IGD101I SMS ALLOCATED TO DDNAME (SYSUT8  )
        DSN (SYS24099.T230950.RA000.KC03AE4A.R0135902    )
        STORCLAS (TEMPSC) MGMTCLAS (        ) DATACLAS (        )
        VOL SER NOS= KCTR01                                                                
IGD101I SMS ALLOCATED TO DDNAME (SYSUT9  )
        DSN (SYS24099.T230950.RA000.KC03AE4A.R0135903    )
        STORCLAS (TEMPSC) MGMTCLAS (        ) DATACLAS (        )
        VOL SER NOS= KCTR01                                                                
IGD101I SMS ALLOCATED TO DDNAME (SYSUT10 )
        DSN (SYS24099.T230950.RA000.KC03AE4A.R0135904    )
        STORCLAS (TEMPSC) MGMTCLAS (        ) DATACLAS (        )
        VOL SER NOS= KCTR01                                                                
IGD101I SMS ALLOCATED TO DDNAME (SYSUT11 )
        DSN (SYS24099.T230950.RA000.KC03AE4A.R0135905    )
        STORCLAS (TEMPSC) MGMTCLAS (        ) DATACLAS (        )
        VOL SER NOS= KCTR01                                                                
IGD101I SMS ALLOCATED TO DDNAME (SYSUT12 )
        DSN (SYS24099.T230950.RA000.KC03AE4A.R0135906    )
        STORCLAS (TEMPSC) MGMTCLAS (        ) DATACLAS (        )
        VOL SER NOS= KCTR01                                                                
IGD101I SMS ALLOCATED TO DDNAME (SYSUT13 )
        DSN (SYS24099.T230950.RA000.KC03AE4A.R0135907    )
        STORCLAS (TEMPSC) MGMTCLAS (        ) DATACLAS (        )
        VOL SER NOS= KCTR01                                                                
IGD101I SMS ALLOCATED TO DDNAME (SYSUT14 )
        DSN (SYS24099.T230950.RA000.KC03AE4A.R0135908    )
        STORCLAS (TEMPSC) MGMTCLAS (        ) DATACLAS (        )
        VOL SER NOS= KCTR01                                                                
IGD101I SMS ALLOCATED TO DDNAME (SYSUT15 )
        DSN (SYS24099.T230950.RA000.KC03AE4A.R0135909    )
        STORCLAS (TEMPSC) MGMTCLAS (        ) DATACLAS (        )
        VOL SER NOS= KCTR01                                                                
IGD101I SMS ALLOCATED TO DDNAME (SYSMDECK)
        DSN (SYS24099.T230950.RA000.KC03AE4A.R0135910    )
        STORCLAS (TEMPSC) MGMTCLAS (        ) DATACLAS (        )
        VOL SER NOS= KCTR01                                                                
IEF142I KC03AE4A JSTEP01 - STEP WAS EXECUTED - COND CODE 0000
IEF285I   SYS1.MACLIB                                  KEPT          
IEF285I   VOL SER NOS= VTMVSC.                            
IEF285I   KC03AE4.KC03AE4A.JOB07090.D0000101.?         SYSIN         
IGD106I SYS24099.T230950.RA000.KC03AE4A.OBJMOD.H01   PASSED,    DDNAME=SYSLIN  
IEF285I   KC03AE4.KC03AE4A.JOB07090.D0000102.?         SYSOUT        
IGD105I SYS24099.T230950.RA000.KC03AE4A.R0135895     DELETED,   DDNAME=SYSUT1  
IGD105I SYS24099.T230950.RA000.KC03AE4A.R0135896     DELETED,   DDNAME=SYSUT2  
IGD105I SYS24099.T230950.RA000.KC03AE4A.R0135897     DELETED,   DDNAME=SYSUT3  
IGD105I SYS24099.T230950.RA000.KC03AE4A.R0135898     DELETED,   DDNAME=SYSUT4  
IGD105I SYS24099.T230950.RA000.KC03AE4A.R0135899     DELETED,   DDNAME=SYSUT5  
IGD105I SYS24099.T230950.RA000.KC03AE4A.R0135900     DELETED,   DDNAME=SYSUT6  
IGD105I SYS24099.T230950.RA000.KC03AE4A.R0135901     DELETED,   DDNAME=SYSUT7  
IGD105I SYS24099.T230950.RA000.KC03AE4A.R0135902     DELETED,   DDNAME=SYSUT8  
IGD105I SYS24099.T230950.RA000.KC03AE4A.R0135903     DELETED,   DDNAME=SYSUT9  
IGD105I SYS24099.T230950.RA000.KC03AE4A.R0135904     DELETED,   DDNAME=SYSUT10 
IGD105I SYS24099.T230950.RA000.KC03AE4A.R0135905     DELETED,   DDNAME=SYSUT11 
IGD105I SYS24099.T230950.RA000.KC03AE4A.R0135906     DELETED,   DDNAME=SYSUT12 
IGD105I SYS24099.T230950.RA000.KC03AE4A.R0135907     DELETED,   DDNAME=SYSUT13 
IGD105I SYS24099.T230950.RA000.KC03AE4A.R0135908     DELETED,   DDNAME=SYSUT14 
IGD105I SYS24099.T230950.RA000.KC03AE4A.R0135909     DELETED,   DDNAME=SYSUT15 
IGD105I SYS24099.T230950.RA000.KC03AE4A.R0135910     DELETED,   DDNAME=SYSMDECK
IEF373I STEP/JSTEP01 /START 2024099.2309
IEF032I STEP/JSTEP01 /STOP  2024099.2309 
        CPU:     0 HR  00 MIN  00.01 SEC    SRB:     0 HR  00 MIN  00.00 SEC    
        VIRT:   208K  SYS:   292K  EXT:    32768K  SYS:    11452K
        ATB- REAL:                  1280K  SLOTS:                     0K
             VIRT- ALLOC:      19M SHRD:       0M
IEFA108I KC03AE4A JSTEP02 SYSLIN - PASSED DATA SET INFORMATION FOUND. MOD IS TREATED AS OLD
IEF236I ALLOC. FOR KC03AE4A JSTEP02
IEF237I 1001 ALLOCATED TO SYSLIB
IGD103I SMS ALLOCATED TO DDNAME SYSLIN
IGD103I SMS ALLOCATED TO DDNAME SYSLMOD
IEF237I JES2 ALLOCATED TO SYSPRINT
IEF142I KC03AE4A JSTEP02 - STEP WAS EXECUTED - COND CODE 0000
IEF285I   CEE.SCEELKEX                                 KEPT          
IEF285I   VOL SER NOS= VTMVSC.                            
IGD105I SYS24099.T230950.RA000.KC03AE4A.OBJMOD.H01   DELETED,   DDNAME=SYSLIN  
IGD104I KC03AE4.CSCI465.LOADLIB                      RETAINED,  DDNAME=SYSLMOD 
IEF285I   KC03AE4.KC03AE4A.JOB07090.D0000103.?         SYSOUT        
IEF373I STEP/JSTEP02 /START 2024099.2309
IEF032I STEP/JSTEP02 /STOP  2024099.2309 
        CPU:     0 HR  00 MIN  00.00 SEC    SRB:     0 HR  00 MIN  00.00 SEC    
        VIRT:   144K  SYS:   292K  EXT:     1640K  SYS:    11368K
        ATB- REAL:                  1280K  SLOTS:                     0K
             VIRT- ALLOC:      18M SHRD:       0M
IEF236I ALLOC. FOR KC03AE4A JSTEP03
IGD103I SMS ALLOCATED TO DDNAME STEPLIB
IGD103I SMS ALLOCATED TO DDNAME
IGD103I SMS ALLOCATED TO DDNAME SALESFLE
IGD101I SMS ALLOCATED TO DDNAME (HSFLE   )
        DSN (SYS24099.T230950.RA000.KC03AE4A.HSFLE.H01   )
        STORCLAS (TEMPSC) MGMTCLAS (        ) DATACLAS (        )
        VOL SER NOS= KCTR01                                                                
IEF237I JES2 ALLOCATED TO RPTFLE
IEF142I KC03AE4A JSTEP03 - STEP WAS EXECUTED - COND CODE 0000
IGD104I KC03AE4.CSCI465.LOADLIB                      RETAINED,  DDNAME=STEPLIB 
IGD104I KC02322.CSCI465.LOADLIB                      RETAINED,  DDNAME=        
IGD104I KC02322.CSCI465.DATAFA23                     RETAINED,  DDNAME=SALESFLE
IGD105I SYS24099.T230950.RA000.KC03AE4A.HSFLE.H01    DELETED,   DDNAME=HSFLE   
IEF285I   KC03AE4.KC03AE4A.JOB07090.D0000104.?         SYSOUT        
IEF373I STEP/JSTEP03 /START 2024099.2309
IEF032I STEP/JSTEP03 /STOP  2024099.2309 
        CPU:     0 HR  00 MIN  00.00 SEC    SRB:     0 HR  00 MIN  00.00 SEC    
        VIRT:    40K  SYS:   300K  EXT:        8K  SYS:    11564K
        ATB- REAL:                  1280K  SLOTS:                     0K
             VIRT- ALLOC:      18M SHRD:       0M
IEF375I  JOB/KC03AE4A/START 2024099.2309
IEF033I  JOB/KC03AE4A/STOP  2024099.2309 
        CPU:     0 HR  00 MIN  00.01 SEC    SRB:     0 HR  00 MIN  00.00 SEC    

                                         High Level Assembler Option Summary                   (PTF UI93396)   Page    1            


                                                                                            HLASM R6.0  2024/04/08 23.09            

  No Overriding ASMAOPT Parameters                                                                                                  
  Overriding Parameters-  ASA                                                                                                       
  No Process Statements                                                                                                             
                                                                                                                                    
                                                                                                                                    
  Options for this Assembly                                                                                                         

                    NOADATA                                                                                                         
                      ALIGN                                                                                                         
3 PARM/OPTION         ASA                                                                                                           
                      ASCII(00819)                                                                                                  
                      BATCH                                                                                                         
                      CA(LOCAL)                                                                                                     
                      CE(LOCAL)                                                                                                     
                      CODEPAGE(01148)                                                                                               
                    NOCOMPAT                                                                                                        
                      CU(LOCAL)                                                                                                     
                    NODATAMAP                                                                                                       
                    NODBCS                                                                                                          
                    NODECK                                                                                                          
                      DXREF                                                                                                         
                      EBCDIC(00037)                                                                                                 
                      ESD                                                                                                           
                    NOEXIT                                                                                                          
                      FAIL(NOMSG,NOMNOTE,MAXERRS(500))                                                                              
                      FLAG(0,ALIGN,CONT,EXLITW,NOIMPLEN,NOLONGER,NOPAGE0,PUSH,RECORD,RENT,NOSIGNED,NOSUBSTR,NOTRUNC,                
                           USING0)                                                                                                  
                    NOFOLD                                                                                                          
                    NOGOFF                                                                                                          
                      ILMA                                                                                                          
                    NOINFO                                                                                                          
                      LANGUAGE(EN)                                                                                                  
                    NOLIBMAC                                                                                                        
                      LINECOUNT(60)                                                                                                 
                      LIST(121)                                                                                                     
                      MACHINE(,NOLIST)                                                                                              
                      MXREF(SOURCE)                                                                                                 
                      OBJECT                                                                                                        
                      OPTABLE(UNI,NOLIST)                                                                                           
                    NOPCONTROL                                                                                                      
                    NOPESTOP                                                                                                        
                    NOPROFILE                                                                                                       
                    NORA2                                                                                                           
                    NORENT                                                                                                          
                      RLD                                                                                                           
                      RXREF                                                                                                         
                      SECTALGN(8)                                                                                                   
                      SIZE(MAX)                                                                                                     
                    NOSUPRWARN                                                                                                      
                      SYSPARM()                                                                                                     
                    NOTERM                                                                                                          
                    NOTEST                                                                                                          
                      THREAD                                                                                                        
                    NOTRANSLATE                                                                                                     
                      TYPECHECK(MAGNITUDE,REGISTER,SIGNED)                                                                          
                      UNICODE(01200)                                                                                                

                                         High Level Assembler Option Summary                   (PTF UI93396)   Page    2            


                                                                                            HLASM R6.0  2024/04/08 23.09            

                      USING(NOLIMIT,MAP,WARN(15))                                                                                   
                    NOWORKFILE                                                                                                      
                      XREF(SHORT,UNREFS)                                                                                            
                                                                                                                                    
  No Overriding DD Names                                                                                                            

                                              External Symbol Dictionary                                       Page    3            


Symbol   Type   Id     Address  Length   Owner Id Flags Alias-of                            HLASM R6.0  2024/04/08 23.09            

SALESRPT  SD 00000001 00000000 00001150             00                                                                              

                                                                                                               Page    4            
  Active Usings: None                                                                                                               

  Loc  Object Code    Addr1 Addr2  Stmt   Source Statement                                  HLASM R6.0  2024/04/08 23.09            

                                      1          PRINT  NOGEN                MACRO CALL SUPPRESSION                                 
                                      2 ******************************************************************                          
                                      3 * PROGRAM NAME: SALESRPT                                         *                          
                                      4 * PROGRAMMER: KENNETH HETHERINGTON                               *                          
                                      5 * DUE DATE: 04/05/2024                                           *                          
                                      6 *                                                                *                          
                                      7 * FUNCTION: THIS PROGRAM GENERATES A SALES REPORT                *                          
                                      8 * FROM INPUT DATA. IT PROCESSES SALES DATA INCLUDING             *                          
                                      9 * BRANCH NAME, BROKER NAME, AND DEPOSIT AMOUNT,                  *                          
                                     10 * SHARE AMOUNT, AND COMMISSION                                   *                          
                                     11 *                                                                *                          
                                     12 * INPUT: A DISK FILE NAMED SALESFILE CONTAINING                  *                          
                                     13 * RECORDS OF SALES DATA                                          *                          
                                     14 *                                                                *                          
                                     15 * OUTPUT: A REPORT FILE NAMED RPTFLE OUTPUTTING                  *                          
                                     16 * A FORMATTED SALES REPORT WITH DETAILS FROM THE                 *                          
                                     17 * INPUT DATA.                                                    *                          
                                     18 *                                                                *                          
                                     19 * AN ADDITIONAL FILE CALLED HSFLE THAT OUTPUTS                   *                          
                                     20 * DATA BROKER NAME AND SHARE AMOUNT                              *                          
                                     21 *                                                                *                          
                                     22 * NOTES: LANGAUGE USED IS ASSEMBLER WITH QSAMS                   *                          
                                     23 ******************************************************************                          
                                     24 *                                                                                           
                                     25 ******************************************************************                          
                                     26 *                      DSECT SECTION                             *                          
                                     27 *                                                                *                          
                                     28 * CONTAINS THE DSECT FOR INFO CONTAINING THE FIRST RECORD TO BE  *                          
                                     29 * READ AND FOR THE SECOND RECORD TO BE READ WHICH WILL BE LOOPED *                          
                                     30 *                                                                *                          
                                     31 ******************************************************************                          
000000                00000 00050    32 $FUNDREC DSECT                         INPUT FOR FIRST RECORD                               
000000                               33 ISHRPRC  DS    ZL5                     ZONED DECIMAL LENGTH 5                               
000005                               34 IFUNDNME DS    CL35                    CHAR LENGTH 35                                       
000028                               35 ICOMPCT1 DS    ZL6                     ZONED LENGTH 6                                       
00002E                               36 ICOMPCT2 DS    ZL6                     ZONED LENGTH 6                                       
000034                               37 ICOMPCT3 DS    ZL6                     ZONED LENGTH 6                                       
00003A                               38          DS    CL22                    UNUSED SPACES                                        
                                     39 *                                                                                           
000000                00000 00050    40 $SALEREC DSECT                         INPUT FOR SECOND RECORD                              
000000                               41 IBRNCNME DS    CL20                    INPUT BRANCH NAME                                    
000014                               42 IBRKRNME DS    CL25                    INPUT BROKER NAME                                    
00002D                               43 IDEPAMT  DS    ZL10                    INPUT DEPOSIT AMT                                    
000037                               44          DS    CL4                     UNUSED SPACE                                         
00003B                               45 ICOMMFLG DS    ZL1                     INPUT COMMISSION FLAG                                
00003C                               46          DS    CL20                    UNUSED SPACES                                        
                                     47 *                                                                                           
                                     48 ******************************************************************                          
                                     49 *                      BEGIN SALESPRT CSECT                      *                          
                                     50 *                                                                *                          
                                     51 *               ESTABLISH ADDRESSABILITY WITH REG 12             *                          
                                     52 ******************************************************************                          
000000                00000 01150    53 SALESRPT CSECT                       BEGIN SALESRPT                                         
                                     54 *                                                                                           
000000 90EC D00C            0000C    55          STM   14,12,12(13)          SAVE CALLER'S REGS                                     

                                                                                                               Page    5            
  Active Usings: None                                                                                                               

  Loc  Object Code    Addr1 Addr2  Stmt   Source Statement                                  HLASM R6.0  2024/04/08 23.09            

000004 18CF                          56          LR    12,15                 SET R12 TO R15                                         
                 R:C  00000          57          USING SALESRPT,12           ESTABLISH R12 AS 1ST BASE REG                          
000006 41E0 C6C0            006C0    58          LA    14,REGS               R14 -> CURRENT SAVE AREA                               
00000A 50D0 E004            00004    59          ST    13,4(,14)             SAVE CALLER'S SAVE AREA ADDR                           
00000E 50E0 E008            00008    60          ST    14,8(,14)             SAVE CURRENT SAVE AREA ADDR                            
000012 18DE                          61          LR    13,14                 R13 -> CURRENT SAVE AREA                               
                                     62 *                                                                                           
000014 41B0 CFFF            00FFF    63          LA    11,4095(,12)                                                                 
000018 41B0 B001            00001    64          LA    11,1(,11)                                                                    
                 R:B  01000          65          USING SALESRPT+4096,11                                                             
                                     66 *                                                                                           
                                     67 * FOR LINKING THE JOBNAME TO DISPLAY IN THE HEADER                                          
                                     68 *                                                                                           
00001C 4110 C024            00024    69          LINK  EP=JOBNAME,PARAM=JOBNAME,VL=1                                                
                                     87 *                                                                                           
                                     88 **************************************************************                              
                                     89 *            SET THE DATE AND TIME FOR THE FUNCTION          *                              
                                     90 **************************************************************                              
00003E 5110 0000            00000    91          TIME  DEC,DATETIME,LINKAGE=SYSTEM,DATETYPE=MMDDYYYY                                
                                    115 *                                                                                           
                                    116 * THIS SECTION WILL SET THE DATE, THEN MVC FOR OUTPUT                                       
                                    117 *                                                                                           
00008A D20C C7B8 C63C 007B8 0063C   118          MVC   SETDATE(13),=X'40202120206120206120202020'                                   
000090 DE0C C7B8 C7AF 007B8 007AF   119          ED    SETDATE(13),DATETIME+7     EDIT DATETIME FROM 7THBYTE                        
000096 D209 C7CF C7BB 007CF 007BB   120          MVC   CURRDATE(10),SETDATE+3     STORE INTO CURRDATE FOR SHOW                      
00009C D201 C85A C61C 0085A 0061C   121          MVC   MERIDIEM(2),=CL2'AM'       MOVE AM TO MERIDIEM                               
                                    122 *                                                                                           
                                    123 * THIS SECTION WILL SET THE TIME, THEN MVC FOR OUTPUT                                       
                                    124 *                                                                                           
0000A2 D204 C7C5 C649 007C5 00649   125          MVC   SETTIME(5),=X'20217A2020'                                                    
0000A8 DE04 C7C5 C7A8 007C5 007A8   126          ED    SETTIME(5),DATETIME     PACK THE HOUR BELOW                                  
0000AE D204 C854 C7C5 00854 007C5   127          MVC   CURRTIME(5),SETTIME     SET CURRENT TIME TO OUTPUT                           
0000B4 F211 C7CA C7C5 007CA 007C5   128          PACK  PTEMPHR(2),SETTIME(2)   PACK THE TEMP HOUR                                   
0000BA F911 C7CA C61E 007CA 0061E   129          CP    PTEMPHR(2),=PL2'12'     CHECKS IF HOUR IS >= 12                              
0000C0 4740 C0F4            000F4   130          BL    NOCHANGE                IF NOT, JUMP TO NOCHANGE                             
                                    131 *                                                                                           
                                    132 * THIS SECTION WILL SET THE HOUR IF NEEDED, SUBTRACTS 1 FOR TZONE                           
                                    133 *                                                                                           
0000C4 D201 C85A C620 0085A 00620   134          MVC   MERIDIEM(2),=CL2'PM'    CHANGE AM TO PM                                      
0000CA FB10 C7CA C64E 007CA 0064E   135          SP    PTEMPHR(2),=PL1'1'      SUBTRACT 1 FROM THE HOUR                             
0000D0 F911 C7CA C622 007CA 00622   136          CP    PTEMPHR(2),=PL2'13'     CHECKS IF HOUR IS >= 13                              
0000D6 4740 C0F4            000F4   137          BL    NOCHANGE                IF NOT, JUMPS TO NOCHANGE                            
0000DA FB11 C7CA C61E 007CA 0061E   138          SP    PTEMPHR(2),=PL2'12'     IF HOUR IS >= 13, REMOVES 12,                        
0000E0 D202 C7CC C64F 007CC 0064F   139          MVC   OUTHOUR(3),=X'212021'                                                        
0000E6 DE02 C7CC C7CA 007CC 007CA   140          ED    OUTHOUR(3),PTEMPHR      MOVES UPDATED HR TO TEMP OUTPUT                      
0000EC D201 C854 C7CD 00854 007CD   141          MVC   CURRTIME(2),OUTHOUR+1   UPDATES CURRENT HOUR ON TIME                         
                                    142 ******************************************************************                          
                                    143 *                      BEGIN OPENING THE FILES                   *                          
                                    144 ******************************************************************                          
                                    145 *                                                                                           
0000F2 0700                         146 NOCHANGE OPEN  (INDCB,(INPUT))       OPEN THE INPUT FILE                                    
0000FE 12FF                         153          LTR   15,15                 CHECK FOR A SUCCESSFUL OPEN                            
000100 4780 C114            00114   154          BZ    OPENOK1               BRANCH TO OPENOK1 IF SUCCEED                           
000104 4110 00DE            000DE   155          ABEND 222,DUMP              ABEND IF OPEN FAILS & DISPLAY 222                      
                                    165 *                                                                                           

                                                                                                               Page    6            
  Active Usings: SALESRPT+X'1000',R11  SALESRPT,R12                                                                                 

  Loc  Object Code    Addr1 Addr2  Stmt   Source Statement                                  HLASM R6.0  2024/04/08 23.09            

                                    166 * OPENING BOTH OUTPUT FILES AT THE SAME TIME, CHECK IF SUCCESS                              
                                    167 *                                                                                           
000114 4D10 C120            00120   168 OPENOK1  OPEN  (RPTDCB,(OUTPUT),HSDCB,(OUTPUT))     OPEN OUTPUT FILES                       
000122 12FF                         177          LTR   15,15                 CHECK FOR SUCCESSFUL OPEN                              
000124 4780 C138            00138   178          BZ    OPENOK2               BRANCH IF TO OPENOK2 IF SUCCESS                        
000128 4110 014D            0014D   179          ABEND 333,DUMP              ABEND IF OPEN FAILS & DISPLAY 333                      
                                    189 *                                                                                           
                                    190 ******************************************************************                          
                                    191 *                      BEGIN READING THE FILES                   *                          
                                    192 ******************************************************************                          
000138 4110 B020            01020   193 OPENOK2  GET   INDCB                 READ THE FIRST RECORD                                  
000144 D24F C708 1000 00708 00000   201          MVC   RECORD(80),0(1)                                                              
00014A 1831                         202          LR    3,1                   LOAD R3 WITH R1                                        
                 R:3  00000         203          USING $FUNDREC,3            ESTABLISH ADDRESSABILITY                               
00014C 95E8 B080      01080         204          CLI   EOFFLAG,C'Y'          CHECK FOR EOF                                          
000150 4780 C408            00408   205          BE    CLOSEREC              IF NO REC BRANCH TO CLOSE FILES                        
                                    206 ******************************************************************                          
                                    207 *                   SETTING THE FUND RECORD INFO                 *                          
                                    208 ******************************************************************                          
000154 F224 C758 3000 00758 00000   209          PACK  PSHRPRC(3),ISHRPRC(5)   PACK SHR PRICE FROM INPUT                            
00015A 4110 C91F            0091F   210          LA    1,OSHRPRC+3             "INSURANCE"                                          
00015E D206 C91C C652 0091C 00652   211          MVC   OSHRPRC(7),=X'402021204B2020'                                                
000164 DF06 C91C C758 0091C 00758   212          EDMK  OSHRPRC(7),PSHRPRC      MOVE SHR PRICE TO OUTPUT                             
00016A 0610                         213          BCTR  1,0                     DECREMENT BY 1                                       
00016C 925B 1000      00000         214          MVI   0(1),C'$'               ADD $ TO BEGINNING SHR PRICE                         
                                    215 *                                                                                           
000170 D222 C7FF 3005 007FF 00005   216          MVC   OFUNDNME(35),IFUNDNME   MOVE FUND NAME TO OUTPUT                             
                                    217 *                                                                                           
                                    218 * PACKING THE COMISSION PERCENTS FROM INPUT TO PACKED DECIMAL FIELDS                        
                                    219 *                                                                                           
000176 F235 C75B 3028 0075B 00028   220          PACK  PCOMPCT1(4),ICOMPCT1(6) PACK COMMISSION 1                                    
00017C F235 C75F 302E 0075F 0002E   221          PACK  PCOMPCT2(4),ICOMPCT2(6) PACK COMMISSION 2                                    
000182 F235 C763 3034 00763 00034   222          PACK  PCOMPCT3(4),ICOMPCT3(6) PACK COMMISSION 3                                    
                                    223 *                                                                                           
                                    224          DROP  3                       REMOVE ADDRESSABILITY                                
                                    225 ******************************************************************                          
                                    226 *            ESTABLISH ADDRESSABILITY FOR NEXT RECORD            *                          
                                    227 ******************************************************************                          
                                    228 *                                                                                           
000188 4120 0063            00063   229          LA    2,99                  LA 2 WITH 99 FOR COUNTER                               
00018C 4110 B020            01020   230          GET   INDCB                 GETS NEXT RECORD                                       
000198 D24F C708 1000 00708 00000   238          MVC   RECORD(80),0(1)                                                              
00019E 1231                         239          LTR   3,1                   LOAD R3 WITH R1 AGAIN                                  
                 R:3  00000         240          USING $SALEREC,3            RE-ESTABLISH ADDRESSABILITY                            
                                    241 *                                                                                           
                                    242 ******************************************************************                          
                                    243 *                   SETTING THE SALE RECORD INFO                 *                          
                                    244 ******************************************************************                          
                                    245 *                                                                                           
0001A0 95E8 B080      01080         246 LOOP1    CLI   EOFFLAG,C'Y'             CHECK FOR END OF FILE AGAIN                         
0001A4 4780 C342            00342   247          BE    ENDLOOP1                 IF YES GO TO ENDLOOP                                
                                    248 *                                                                                           
0001A8 FA10 C76D C64E 0076D 0064E   249          AP    PSALECTR(2),=PL1'1'      ADD 1 TO COUNTER 99 -> 1                            
                                    250 *                                                                                           
                                    251 * RECOMMENDED TO HAVE AT THE TOP OF EACH LOOP PER INSTRUCTIONS                              

                                                                                                               Page    7            
  Active Usings: $SALEREC,R3  SALESRPT+X'1000',R11  SALESRPT,R12                                                                    

  Loc  Object Code    Addr1 Addr2  Stmt   Source Statement                                  HLASM R6.0  2024/04/08 23.09            

                                    252 *                                                                                           
0001AE 9240 CA69      00A69         253          MVI   OSALEREC+1,C' '                                                              
0001B2 D282 CA6A CA69 00A6A 00A69   254          MVC   OSALEREC+2(131),OSALEREC+1                                                   
                                    255 *                                                                                           
                                    256 * MOVE THE BRANCH NAME AND BROKER NAME INTO THE OUTPUT FIELDS                               
                                    257 *                                                                                           
0001B8 D213 CA69 3000 00A69 00000   258          MVC   OBRNCNME(20),IBRNCNME    MOVE BRANCH NAME TO OUTPUT                          
0001BE D218 CA8A 3014 00A8A 00014   259          MVC   OBRKRNME(25),IBRKRNME    MOVE BROKER NAME TO OUTPUT                          
                                    260 *                                                                                           
                                    261 * DEALING WITH DEPOSIT AMOUNT                                                               
                                    262 *                                                                                           
0001C4 F259 C771 302D 00771 0002D   263          PACK  PDEPAMT(6),IDEPAMT(10)   PACK INPUT INTO PACKED VAR                          
0001CA 4110 CAB7            00AB7   264          LA    1,ODEPAMT+11             "INSURANCE"                                         
0001CE D20E CAAC C659 00AAC 00659   265          MVC   ODEPAMT(15),=X'402020206B2020206B2021204B2020'                               
0001D4 DF0E CAAC C771 00AAC 00771   266          EDMK  ODEPAMT(15),PDEPAMT      MOVE DEPAMT TO OUTPUT FIELD                         
0001DA 0610                         267          BCTR  1,0                      SUBTRACT BY 1                                       
0001DC 925B 1000      00000         268          MVI   0(1),C'$'                MOVE $ TO THE FRONT OF FIELD                        
0001E0 FA65 C777 C771 00777 00771   269          AP    PTDEPAMT(7),PDEPAMT(6)   ADD DEPAMT TO TOTAL DEPAMT                          
                                    270 *                                                                                           
                                    271 * CALCULATE THE SHARE AMOUNT                                                                
                                    272 *                                                                                           
0001E6 F8A5 C79C C771 0079C 00771   273          ZAP   PCALC(11),PDEPAMT(6)     MOVE DEPAMT FOR DP                                  
0001EC F0A0 C79C 0004 0079C 00004   274          SRP   PCALC(11),4,0            MOVE 4 DECIMAL PLACES RIGHT                         
0001F2 FDA2 C79C C758 0079C 00758   275          DP    PCALC(11),PSHRPRC(3)     DIVED DEP AMT BY SHARE PRICE                        
0001F8 F075 C79C 003F 0079C 0003F   276          SRP   PCALC(8),64-1,5          SHIFT AND ROUND QUOTIENT                            
0001FE F877 C77E C79C 0077E 0079C   277          ZAP   PSHRAMT(8),PCALC(8)      ZAP QUOTIENT INTO SHR AMT                           
000204 F075 C77E 0001 0077E 00001   278          SRP   PSHRAMT(8),1,5           SHIFT SHR AMT                                       
00020A 4110 CAD0            00AD0   279          LA    1,OSHRAMT+14             "INSURANCE"                                         
00020E D213 CAC2 C5E8 00AC2 005E8   280          MVC   OSHRAMT(20),=X'4020206B2020206B2020206B2021204B20202020'                     
000214 DE13 CAC2 C77E 00AC2 0077E   281          ED    OSHRAMT(20),PSHRAMT      EDIT TO OUTPUT FIELD                                
00021A FA87 C786 C77E 00786 0077E   282          AP    PTSHRAMT(9),PSHRAMT(8)   ADD SHARE AMT TO TOTAL                              
                                    283 *                                                                                           
                                    284 * THIS SECTION COMPARES THE SHARE AMOUNT TO 50,000 IF THE SHARE AMT                         
                                    285 * IS MORE THAN 50K THEN THEY ARE HIGH SALES AND NEED TO BE MOVED                            
                                    286 *                                                                                           
000220 F974 C77E C668 0077E 00668   287          CP    PSHRAMT,=PL5'50000.0000' COMPARE TO 50K                                      
000226 4740 C246            00246   288          BL    COMMS                    IF NOT ENOUGH BRANCH                                
00022A D218 CDAC 3014 00DAC 00014   289          MVC   HSBRKNME(25),IBRKRNME    ELSE, MOVE NAME TO HS STORAGE                       
000230 F877 CDC9 C77E 00DC9 0077E   290          ZAP   HSSHRAMT(8),PSHRAMT(8)   MOVE PACKED SHR AMT TO HS                           
000236 4110 B0E8            010E8   291          PUT   HSDCB,HSREC              PUT INTO HSDCB OUTPUT                               
                                    300 *                                                                                           
                                    301 * CALCULATE THE COMMISSION AMOUNT BY COMPARING THE VALUE STORED                             
                                    302 * TO 1, 2, OR 3 THEN BASED ON THE NUMBER DETERMINES THE PERCENTAGE                          
                                    303 * USED                                                                                      
                                    304 *                                                                                           
000246 F8A5 C79C C771 0079C 00771   305 COMMS    ZAP   PCALC(11),PDEPAMT(6)    MOVE DEPAMT INTO PCALC FOR DIV                       
00024C F210 C767 303B 00767 0003B   306          PACK  PCOMMFLG(2),ICOMMFLG(1) PACK INPUT COMMISSION FLG                            
000252 F911 C767 C624 00767 00624   307 COMM1    CP    PCOMMFLG,=PL2'1'        IF FLG IS 1                                          
000258 4770 C262            00262   308          BNE   COMM2                   IF FLG !- 1 MOVE TO NEXT FLG                         
00025C FCA3 C79C C75B 0079C 0075B   309          MP    PCALC(11),PCOMPCT1(4)   CALC COMM FLAG WHEN 1                                
000262 F911 C767 C626 00767 00626   310 COMM2    CP    PCOMMFLG,=PL2'2'        IF FLG IS 2                                          
000268 4770 C272            00272   311          BNE   COMM3                   IF FLG !- 2 MOVE TO NEXT FLG                         
00026C FCA3 C79C C75F 0079C 0075F   312          MP    PCALC(11),PCOMPCT2(4)   CALC COMM FLAG WHEN 2                                
000272 F911 C767 C628 00767 00628   313 COMM3    CP    PCOMMFLG,=PL2'3'        IF FLG IS 3                                          
000278 4770 C282            00282   314          BNE   COMMCALC                MOVE TO COMMISSION CALC                              

                                                                                                               Page    8            
  Active Usings: $SALEREC,R3  SALESRPT+X'1000',R11  SALESRPT,R12                                                                    

  Loc  Object Code    Addr1 Addr2  Stmt   Source Statement                                  HLASM R6.0  2024/04/08 23.09            

00027C FCA3 C79C C763 0079C 00763   315          MP    PCALC(11),PCOMPCT3(4)   CALC COMM FLAG WHEN 3                                
000282 F0A5 C79C 003D 0079C 0003D   316 COMMCALC SRP   PCALC(11),64-3,5        MOVE LEFT 3 DECIMAL PLACES                           
000288 4110 CAE9            00AE9   317          LA    1,OCOMAMT+11            "INSURANCE"                                          
00028C D20E CADE C659 00ADE 00659   318          MVC   OCOMAMT(15),=X'402020206B2020206B2021204B2020'                               
000292 DF0E CADE C7A0 00ADE 007A0   319          EDMK  OCOMAMT(15),PCALC+4     EDIT INTO THE E PATTERN                              
000298 0610                         320          BCTR  1,0                     SUBTRACT BY 1                                        
00029A 925B 1000      00000         321          MVI   0(1),C'$'               MOVE $ TO FRONT                                      
00029E FA6A C795 C79C 00795 0079C   322          AP    PTCOMAMT(7),PCALC(11)   ADD TO TOTAL AMOUNT FOR LATER                        
                                    323 *                                                                                           
                                    324 * ADD TO TOTAL COMMISSION AMOUNT                                                            
                                    325 *                                                                                           
                                    326 *                                                                                           
                                    327 * THIS SECTION DETERMINES IF A NEW PAGE SHOULD BE PRINTED BY                                
                                    328 * COMPARING THE PAGE COUNTER TO 18 AND IF THEY ARE EQUAL NEW PAGE                           
                                    329 * ELSE CONTINUE PRINTING THE RECORDS                                                        
                                    330 *                                                                                           
0002A4 5920 C5FC            005FC   331          C     2,=F'18'                CHECKS IF 18 LINES HAS PRINTED                       
0002A8 4740 C31A            0031A   332          BL    NOHEADER                BRANCH FOR NO HEADER PRINT                           
0002AC FA10 C76F C64E 0076F 0064E   333          AP    PPAGECTR(2),=PL1'1'     ADD 1 TO PAGE COUNTER                                
0002B2 D203 C84F C600 0084F 00600   334          MVC   OPAGECTR(4),=X'40202021'                                                     
0002B8 DE03 C84F C76F 0084F 0076F   335          ED    OPAGECTR(4),PPAGECTR    PRINT THE PAGE COUNTER                               
0002BE 4110 B088            01088   336          PUT   RPTDCB                                                                       
0002CA D284 1000 C7CE 00000 007CE   344          MVC   0(133,1),HEADER1        DATE, FUND NAME, PAGE COUNTER                        
0002D0 4110 B088            01088   345          PUT   RPTDCB                                                                       
0002DC D284 1000 C853 00000 00853   353          MVC   0(133,1),HEADER2        TIME, BRKR NAME, JOBNAME                             
0002E2 4110 B088            01088   354          PUT   RPTDCB                                                                       
0002EE D284 1000 C8D8 00000 008D8   362          MVC   0(133,1),HEADER3        SHARE PRICE                                          
0002F4 4110 B088            01088   363          PUT   RPTDCB                                                                       
000300 D284 1000 C95D 00000 0095D   371          MVC   0(133,1),HEADER4        PRINT SALES RECORD HEADER                            
000306 4110 B088            01088   372          PUT   RPTDCB                                                                       
000312 D284 1000 C9E2 00000 009E2   380          MVC   0(133,1),HEADER5        PRINT RECORD HEADER HYPHENS                          
000318 1B22                         381          SR    2,2                     MOVE 0 TO R2                                         
                                    382 *                                                                                           
                                    383 * BRANCH LOCATION FOR IF NO HEADERS ARE NEEDED                                              
                                    384 *                                                                                           
00031A 4110 B088            01088   385 NOHEADER PUT   RPTDCB                                                                       
000326 D284 1000 CA68 00000 00A68   393          MVC   0(133,1),OSALEREC     PRINT SALES RECORD HEADER HYPEN                        
00032C 4120 2001            00001   394          LA    2,1(,2)                                                                      
000330 4110 B020            01020   395          GET   INDCB                 GET THE NEXT RECORD                                    
00033C 1831                         403          LR    3,1                   LR 3 AGAIN, AND THEN....                               
00033E 47F0 C1A0            001A0   404          B     LOOP1                 BRANCH TO TOP OF LOOP AND REPEAT                       
                                    405 ******************************************************************                          
                                    406 *                      END OF LOOP FOR SALES                     *                          
                                    407 *                               -                                *                          
                                    408 *                 BEGINNING OF THE TOTALS SECTION                *                          
                                    409 ******************************************************************                          
000342                              410 ENDLOOP1 DS    0H                                                                           
                                    411          DROP  3                        REMOVE ADDRESSABILITY                               
000342 D203 CC2A C604 00C2A 00604   412          MVC   OSALECTR(4),=X'40202120' EDIT PATTERN                                        
000348 DE03 CC2A C76D 00C2A 0076D   413          ED    OSALECTR(4),PSALECTR     EDIT COUNTER INTO OUTPUT                            
                                    414 *                                                                                           
                                    415 * SETTING THE TOTAL AMOUNT FIELDS                                                           
                                    416 *                                                                                           
00034E D211 CC37 C62A 00C37 0062A   417          MVC   OTDEPAMT(18),=X'4020206B2020206B2020206B2021204B2020'                        
000354 DF11 CC37 C777 00C37 00777   418          EDMK  OTDEPAMT(18),PTDEPAMT   MOVE TOTAL DEPAMT TO OUTPUT                          

                                                                                                               Page    9            
  Active Usings: SALESRPT+X'1000',R11  SALESRPT,R12                                                                                 

  Loc  Object Code    Addr1 Addr2  Stmt   Source Statement                                  HLASM R6.0  2024/04/08 23.09            

00035A 0610                         419          BCTR  1,0                     SUBTRACT BY 1                                        
00035C 925B 1000      00000         420          MVI   0(1),C'$'               MOVE $ TO THE BEGINNING                              
                                    421 *                                                                                           
                                    422 * SETTING THE TOTAL SHARE AMOUNT FIELDS                                                     
                                    423 *                                                                                           
000360 D216 CC4D C66D 00C4D 0066D   424          MVC   OTSHRAMT(23),=X'40206B2020206B2020206B2020206B2021204B20X                    
                                                       202020'                                                                      
000366 DE16 CC4D C786 00C4D 00786   425          ED    OTSHRAMT(23),PTSHRAMT   EDIT PACK INTO OUTPUT FIELD                          
                                    426 *                                                                                           
                                    427 * SETTING THE TOTAL COMMISSION AMOUNT FIELDS                                                
                                    428 *                                                                                           
00036C F065 C795 003E 00795 0003E   429          SRP   PTCOMAMT,64-2,5         SHIFT TO LEFT 2 DECIMAL                              
000372 4110 CC78            00C78   430          LA    1,OTCOMAMT+14           "INSURANCE"                                          
000376 D211 CC6A C62A 00C6A 0062A   431          MVC   OTCOMAMT(18),=X'4020206B2020206B2020206B2021204B2020'                        
00037C DF11 CC6A C795 00C6A 00795   432          EDMK  OTCOMAMT(18),PTCOMAMT   EDIT PATTERN FOR OUTPUT                              
000382 0610                         433          BCTR  1,0                     SUBTRACT BY 1                                        
000384 925B 1000      00000         434          MVI   0(1),C'$'               MOVE $ TO FRONT                                      
                                    435 ******************************************************************                          
                                    436 *                END OF THE TOTAL SETUP SECTION                  *                          
                                    437 *                               -                                *                          
                                    438 *                  PRINTING THE TOTALS SECTION                   *                          
                                    439 ******************************************************************                          
                                    440 *                                                                                           
                                    441 * ADJUSTING THE PAGE COUNTER FOR THE 7TH PAGE                                               
                                    442 *                                                                                           
000388 FA10 C76F C64E 0076F 0064E   443          AP    PPAGECTR(2),=PL1'1'      ADD 1 TO PAGE COUNTER                               
00038E D203 C84F C600 0084F 00600   444          MVC   OPAGECTR(4),=X'40202021' EDIT PATTERN                                        
000394 DE03 C84F C76F 0084F 0076F   445          ED    OPAGECTR(4),PPAGECTR     PRINT THE PAGE COUNTER                              
                                    446 *                                                                                           
00039A 4110 B088            01088   447          PUT   RPTDCB                                                                       
0003A6 D284 1000 C7CE 00000 007CE   455          MVC   0(133,1),HEADER1      DATE, FUND NAME, PAGE COUNTER                          
0003AC 4110 B088            01088   456          PUT   RPTDCB                                                                       
0003B8 D284 1000 C853 00000 00853   464          MVC   0(133,1),HEADER2      TIME, BRKR NAME, JOBNAME                               
0003BE 4110 B088            01088   465          PUT   RPTDCB                                                                       
0003CA D284 1000 C8D8 00000 008D8   473          MVC   0(133,1),HEADER3      SHARE PRICE                                            
0003D0 4110 B088            01088   474          PUT   RPTDCB                                                                       
0003DC D284 1000 CAED 00000 00AED   482          MVC   0(133,1),HEADER7      TOTALS COLUMNS                                         
0003E2 4110 B088            01088   483          PUT   RPTDCB                                                                       
0003EE D284 1000 CB72 00000 00B72   491          MVC   0(133,1),HEADER8      TOTALS HYPHENS                                         
0003F4 4110 B088            01088   492          PUT   RPTDCB                                                                       
000400 D284 1000 CBF7 00000 00BF7   500          MVC   0(133,1),HEADER9      TOTALS SALES                                           
                                    501 ******************************************************************                          
                                    502 *                 CLOSE THE FILES RESET COUNTERS                 *                          
                                    503 ******************************************************************                          
                                    504 *                                                                                           
000406 0700                         505 CLOSEREC CLOSE (INDCB,,HSDCB)          CLOSE THE TWO DCBs                                   
                                    514 *                                                                                           
                                    515 ******************************************************************                          
                                    516 *              BEGINNING OF HIGH SALES FILE SECTION              *                          
                                    517 ******************************************************************                          
                                    518 *                                                                                           
                                    519 * OPEN THE HIGH SALES FILE FOR INPUT                                                        
                                    520 *                                                                                           
000416 0700                         521          OPEN  (HSDCB,(INPUT))         OPEN HS FILE FOR INPUT                               
000422 12FF                         528          LTR   15,15                   LOAD AND TEST REG 15                                 

                                                                                                               Page   10            
  Active Usings: SALESRPT+X'1000',R11  SALESRPT,R12                                                                                 

  Loc  Object Code    Addr1 Addr2  Stmt   Source Statement                                  HLASM R6.0  2024/04/08 23.09            

000424 4780 C438            00438   529          BZ    OPENOK3                 BRANCH IF SUCCESS                                    
000428 4110 01BC            001BC   530          ABEND 444,DUMP                ABEND IF FAIL, DISPLAY 444                           
                                    540 *                                                                                           
                                    541 * RESET THE COUNTER                                                                         
                                    542 *                                                                                           
000438 4120 0063            00063   543 OPENOK3  LA    2,99                                                                         
00043C F810 C76D C684 0076D 00684   544          ZAP   PSALECTR(2),=PL1'0'     RESET SALE COUNTER                                   
000442 F810 C76F C684 0076F 00684   545          ZAP   PPAGECTR(2),=PL1'0'     RESET PAGE COUNTER                                   
000448 F880 C786 C684 00786 00684   546          ZAP   PTSHRAMT(9),=PL1'0'     RESET TOTAL SHARE AMT                                
                                    547 *                                                                                           
00044E 4110 B0E8            010E8   548          GET   HSDCB,HSREC             GET THE FIRST HS RECORD                              
                                    557 *                                                                                           
                                    558 * BEGINNING OF THE SECOND LOOP FOR THE HIGH SALES RECORDS TO BE READ                        
                                    559 *                                                                                           
00045E 95E8 B148      01148         560 LOOP2    CLI   EOFFLAG2,C'Y'           CHECK FOR EOF DATA                                   
000462 4780 C52C            0052C   561          BE    ENDLOOP2                BRANCH TO ENDLOOP2 IF EOF                            
                                    562 *                                                                                           
000466 D218 CE31 CDAC 00E31 00DAC   563          MVC   OHBRKNME(25),HSBRKNME   MOVE BROKER NAME TO OUTPUT                           
00046C F075 CDC9 0001 00DC9 00001   564          SRP   HSSHRAMT(8),1,5         SHIFT SHARE AMOUNT 1 PLACE                           
000472 D213 CE57 C608 00E57 00608   565          MVC   OHSHRAMT(20),=X'4040206B2020206B2020206B2021204B20202020X                    
                                                       '                                                                            
000478 DE13 CE57 CDC9 00E57 00DC9   566          ED    OHSHRAMT(20),HSSHRAMT   EDIT INTO OUTPUT                                     
                                    567 *                                                                                           
00047E FA87 C786 CDC9 00786 00DC9   568          AP    PTSHRAMT(9),HSSHRAMT(8) ADD TO TOTAL SHARE AMOUNT                            
000484 FA10 C76D C64E 0076D 0064E   569          AP    PSALECTR(2),=PL1'1'     ADD 1 TO SALE COUNTER                                
                                    570 *                                                                                           
00048A 5920 C5FC            005FC   571          C     2,=F'18'                 COMPARE LINE COUNTER TO 18                          
00048E 4740 C500            00500   572          BL    NOHDR2                   BRANCH IF NO HEADER IS NEEDED                       
000492 FA10 C76F C64E 0076F 0064E   573          AP    PPAGECTR(2),=PL1'1'      ADDING PAGE COUNTER TO PACKED                       
000498 D203 C84F C600 0084F 00600   574          MVC   OPAGECTR(4),=X'40202021' MVC THE EDIT PATTERN                                
00049E DE03 C84F C76F 0084F 0076F   575          ED    OPAGECTR(4),PPAGECTR     EDIT PAGE COUNTER TO OUTPUT                         
                                    576 *                                                                                           
0004A4 4110 B088            01088   577          PUT   RPTDCB                                                                       
0004B0 D284 1000 C7CE 00000 007CE   585          MVC   0(133,1),HEADER1        DATE, FUND NAME, PAGE COUNTER                        
0004B6 4110 B088            01088   586          PUT   RPTDCB                                                                       
0004C2 D284 1000 C853 00000 00853   594          MVC   0(133,1),HEADER2        TIME, BROKER NAME, JOBNAME                           
0004C8 4110 B088            01088   595          PUT   RPTDCB                                                                       
0004D4 D284 1000 C8D8 00000 008D8   603          MVC   0(133,1),HEADER3        SHARE PRICE                                          
0004DA 4110 B088            01088   604          PUT   RPTDCB                                                                       
0004E6 D284 1000 CC7C 00000 00C7C   612          MVC   0(133,1),HEADER10       HIGH SALES COLUMN NAMES                              
0004EC 4110 B088            01088   613          PUT   RPTDCB                                                                       
0004F8 D284 1000 CD01 00000 00D01   621          MVC   0(133,1),HEADER11       HIGH SALES HYPHENS                                   
0004FE 1B22                         622          SR    2,2                     MOVE 0 TO R2                                         
                                    623 *                                                                                           
000500 4110 B088            01088   624 NOHDR2   PUT   RPTDCB                                                                       
00050C D284 1000 CE0B 00000 00E0B   632          MVC   0(133,1),HIRECORD       OUTPUT HIGH SALE RECORD                              
000512 4120 2001            00001   633          LA    2,1(,2)                 ADD 1 TO LINE COUNTER                                
000516 4110 B0E8            010E8   634          GET   HSDCB,HSREC             READ NEXT RECORD                                     
000526 1831                         643          LR    3,1                                                                          
000528 47F0 C45E            0045E   644          B     LOOP2                   BRANCH TO TOP OF LOOP2                               
00052C                              645 ENDLOOP2 DS    0H                                                                           
                                    646 ******************************************************************                          
                                    647 *              END OF HIGH SALES FILE SECTION                    *                          
                                    648 ******************************************************************                          
                                    649 *                                                                                           

                                                                                                               Page   11            
  Active Usings: SALESRPT+X'1000',R11  SALESRPT,R12                                                                                 

  Loc  Object Code    Addr1 Addr2  Stmt   Source Statement                                  HLASM R6.0  2024/04/08 23.09            

                                    650 * PRINTING THE TOTAL SECTION AFTER THE LOOP                                                 
                                    651 *                                                                                           
00052C D203 CFD5 C604 00FD5 00604   652          MVC   OHSCTR(4),=X'40202120'  MVC EDIT PATTERN                                     
000532 DE03 CFD5 C76D 00FD5 0076D   653          ED    OHSCTR(4),PSALECTR      EDIT PATTERN FOR OUTPUT                              
                                    654 *                                                                                           
000538 D216 CFE3 C685 00FE3 00685   655          MVC   OHSTSHRS(23),=X'40406B2020206B2020206B2020206B2021204B20X                    
                                                       202020'                                                                      
00053E DE16 CFE3 C786 00FE3 00786   656          ED    OHSTSHRS(23),PTSHRAMT    MOVE TOTAL SHARE AMT TO OUTPUT                      
000544 FA10 C76F C64E 0076F 0064E   657          AP    PPAGECTR(2),=PL1'1'      ADDS ONE TO PAGE COUNTER                            
00054A D203 C84F C600 0084F 00600   658          MVC   OPAGECTR(4),=X'40202021' MVC EDIT PATTERN TO OUTPUT                          
000550 DE03 C84F C76F 0084F 0076F   659          ED    OPAGECTR(4),PPAGECTR     PRINT PAGE COUNTER                                  
                                    660 *                                                                                           
000556 4110 B088            01088   661          PUT   RPTDCB                                                                       
000562 D284 1000 C7CE 00000 007CE   669          MVC   0(133,1),HEADER1        DATE, FUND NAME, PAGE COUNTER                        
000568 4110 B088            01088   670          PUT   RPTDCB                                                                       
000574 D284 1000 C853 00000 00853   678          MVC   0(133,1),HEADER2        TIME, BROKER NAME, JOBNAME                           
00057A 4110 B088            01088   679          PUT   RPTDCB                                                                       
000586 D284 1000 C8D8 00000 008D8   687          MVC   0(133,1),HEADER3        SHARE PRICE                                          
00058C 4110 B088            01088   688          PUT   RPTDCB                                                                       
000598 D284 1000 CE90 00000 00E90   696          MVC   0(133,1),HSTOTHD        HIGH SALES TOTAL HEADER                              
00059E 4110 B088            01088   697          PUT   RPTDCB                                                                       
0005AA D284 1000 CF15 00000 00F15   705          MVC   0(133,1),HSTOTHYP       HIGH SALES TOTAL HYPEHNS                             
0005B0 4110 B088            01088   706          PUT   RPTDCB                                                                       
0005BC D284 1000 CF9A 00000 00F9A   714          MVC   0(133,1),HSTOTAL        HIGH SALES TOTALS                                    
                                    715 *                                                                                           
                                    716 * CLOSE THE HSDCB (INPUT) AND RPTDCB(OUTPUT)                                                
                                    717 *                                                                                           
0005C2 0700                         718          CLOSE (HSDCB,,RPTDCB)                                                              
                                    727 ******************************************************************                          
                                    728 *                         END OF PROGRAM                         *                          
                                    729 ******************************************************************                          
0005D2 1BFF                         730          SR    15,15                 SET R15 TO 0                                           
0005D4 58D0 D004            00004   731          L     13,4(,13)             R13 -> CALLER'S SAVE AREA                              
0005D8 58E0 D00C            0000C   732          L     14,12(,13)            RESTORE R14                                            
0005DC 980C D014            00014   733          LM    0,12,20(13)           RESTORE R0 THROUGH R12                                 
                                    734 *                                                                                           
0005E0 07FE                         735          BR    14                    RETURN TO CALLER                                       
                                    736 *                                                                                           
0005E8                              737          LTORG                       LTORG TO ORGANIZE LITERALS                             
0005E8 4020206B2020206B             738                =X'4020206B2020206B2020206B2021204B20202020'                                 
0005FC 00000012                     739                =F'18'                                                                       
000600 40202021                     740                =X'40202021'                                                                 
000604 40202120                     741                =X'40202120'                                                                 
000608 4040206B2020206B             742                =X'4040206B2020206B2020206B2021204B20202020'                                 
00061C C1D4                         743                =CL2'AM'                                                                     
00061E 012C                         744                =PL2'12'                                                                     
000620 D7D4                         745                =CL2'PM'                                                                     
000622 013C                         746                =PL2'13'                                                                     
000624 001C                         747                =PL2'1'                                                                      
000626 002C                         748                =PL2'2'                                                                      
000628 003C                         749                =PL2'3'                                                                      
00062A 4020206B2020206B             750                =X'4020206B2020206B2020206B2021204B2020'                                     
00063C 4020212020612020             751                =X'40202120206120206120202020'                                               
000649 20217A2020                   752                =X'20217A2020'                                                               
00064E 1C                           753                =PL1'1'                                                                      

                                                                                                               Page   12            
  Active Usings: SALESRPT+X'1000',R11  SALESRPT,R12                                                                                 

  Loc  Object Code    Addr1 Addr2  Stmt   Source Statement                                  HLASM R6.0  2024/04/08 23.09            

00064F 212021                       754                =X'212021'                                                                   
000652 402021204B2020               755                =X'402021204B2020'                                                           
000659 402020206B202020             756                =X'402020206B2020206B2021204B2020'                                           
000668 500000000C                   757                =PL5'50000.0000'                                                             
00066D 40206B2020206B20             758                =X'40206B2020206B2020206B2020206B2021204B20202020'                           
000684 0C                           759                =PL1'0'                                                                      
000685 40406B2020206B20             760                =X'40406B2020206B2020206B2020206B2021204B20202020'                           
                                    761 *                                                                                           
00069C                0069C 006A0   762          ORG   SALESRPT+((*-SALESRPT+31)/32)*32                                             
0006A0 C8C5D9C540C9E240             763          DC    C'HERE IS THE STORAGE FOR SALESRPT'                                          
                                    764 ******************************************************************                          
                                    765 *                 BEGINING OF THE STORAGE SECTION                *                          
                                    766 ******************************************************************                          
0006C0 0000000000000000             767 REGS     DC    18F'0'                MAINREGS FOR STANDARD LINKAGE                          
000708 7C7C7C7C7C7C7C7C             768 RECORD   DC    80C'@'                INPUT BUFFER FILL WITH '@'                             
                                    769 *                                                                                           
000758 00000C                       770 PSHRPRC  DC    PL3'0'                PACKED LENGTH 3 SHARE PRICE                            
00075B 0000000C                     771 PCOMPCT1 DC    PL4'0'                PACKED LENGTH 4 COMM PCT 1                             
00075F 0000000C                     772 PCOMPCT2 DC    PL4'0'                PACKED LENGTH 4 COMM PCT 2                             
000763 0000000C                     773 PCOMPCT3 DC    PL4'0'                PACKED LENGTH 4 COMM PCT 3                             
000767 000C                         774 PCOMMFLG DC    PL2'0'                PACKED LENGTH 2 COMM FLG                               
000769 0000000C                     775 PTCOMPCT DC    PL4'0'                TEMP VARIABLE FOR COMM PERCENT                         
                                    776 *                                                                                           
00076D 000C                         777 PSALECTR DC    PL2'0'                PACKED LENGTH 2 SALE COUNTER                           
00076F 000C                         778 PPAGECTR DC    PL2'0'                PACKED LENGTH 2 PAGE CTR                               
                                    779 *                                                                                           
000771 00000000000C                 780 PDEPAMT  DC    PL6'0'                PACKED LENGTH 6 DEPOSIT AMT                            
000777 0000000000000C               781 PTDEPAMT DC    PL7'0'                PACKED LENGTH 7 TOTAL DEP AMT                          
00077E 000000000000000C             782 PSHRAMT  DC    PL8'0'                PACKED LENGTH 8 SHARE AMT                              
000786 0000000000000000             783 PTSHRAMT DC    PL9'0'                PACKED LENGTH 9 TOTAL SHR AMT                          
00078F 00000000000C                 784 PCOMMAMT DC    PL6'0'                PACKED LENGTH 6 COMM AMT                               
000795 0000000000000C               785 PTCOMAMT DC    PL7'0'                PACKED LENGTH 7 TOTAL COMM AMT                         
00079C 0000000000000000             786 PCALC    DC    PL11'0'               PACKED LENGTH 11 FOR CALCULATIONS                      
                                    787 *                                                                                           
                                    788 * THE SECTION BELOW IS STORAGE MEANT FOR THE DATE AND TIME MACRO                            
                                    789 *                                                                                           
0007A8                              790 DATETIME DS    4F                    STORAGE FOR TIME MACRO USAGE                           
0007B8                              791 SETDATE  DS    CL13                  TEMP STORAGE FOR FORMATTING DATE                       
0007C5                              792 SETTIME  DS    CL5                   TEMP STORAGE FOR FORMATTING TIME                       
0007CA 000C                         793 PTEMPHR  DC    PL2'0'                TEMP PACKED STORAGE FOR HOUR                           
0007CC 4040                         794 OUTHOUR  DC    2C' '                 USED FOR OUTPUT FORMATTING OF HR                       
                                    795 ******************************************************************                          
                                    796 *                 HEADER 1 STORAGE SECTION                       *                          
                                    797 * CONTAINS: CURRENT DATE, FUND NAME READ IN, PAGE COUNTER        *                          
                                    798 ******************************************************************                          
0007CE 60                           799 HEADER1  DC    C'-'                  TRIPLE SPACE CARRIAGE CONTROL                          
0007CF                              800 CURRDATE DS    10C' '                CURRENT DATE                                           
0007D9 4040404040404040             801          DC    38C' '                38 SPACES                                              
0007FF                              802 OFUNDNME DS    35C' '                FUND NAME                                              
000822 4040404040404040             803          DC    40C' '                40 SPACES                                              
00084A D7C1C7C57A                   804          DC    C'PAGE:'              PAGE INFO                                              
00084F                              805 OPAGECTR DS    4C' '                 CURENT PAGE                                            
                                    806 ******************************************************************                          
                                    807 *                 HEADER 2 STORAGE SECTION                       *                          
                                    808 * CONTAINS: TIME, AM OR PM VAR, AND JOBNAME                      *                          

                                                                                                               Page   13            
  Active Usings: SALESRPT+X'1000',R11  SALESRPT,R12                                                                                 

  Loc  Object Code    Addr1 Addr2  Stmt   Source Statement                                  HLASM R6.0  2024/04/08 23.09            

                                    809 ******************************************************************                          
000853 40                           810 HEADER2  DC    C' '                  SINGLE SPACE CARRIAGE CONTROL                          
000854                              811 CURRTIME DS    X'40217A2020'         CURRENT TIME XX:XX                                     
000859 40                           812          DC    1C' '                 SINGLE SPACE CARRIAGE CONTROL                          
00085A                              813 MERIDIEM DS    2C' '                 AM OR PM AKA MERIDIEM                                  
00085C 4040404040404040             814          DC    40C' '                40 SPACES                                              
000884 C2D9D6D2C5D940E2             815          DC    C'BROKER SALES AND COMMISSIONS REPORT'                                       
0008A7 4040404040404040             816          DC    32C' '                32 SPACES                                              
0008C7 D1D6C2D5C1D4C57A             817          DC    C'JOBNAME: '                                                                 
0008D0 D1D6C2D5C1D4C540             818 JOBNAME  DC    C'JOBNAME '           JOBNAME INFO                                           
                                    819 ******************************************************************                          
                                    820 *                 HEADER 3 STORAGE SECTION                       *                          
                                    821 * CONTAINS: THE SHARE PRICE TEXT ALONG WITH SHARE PRICE AMT      *                          
                                    822 ******************************************************************                          
0008D8 F0                           823 HEADER3  DC    C'0'                  DOUBLE SPACE CARRIAGE CONTROL                          
0008D9 4040404040404040             824          DC    55C' '                54 SPACES                                              
000910 E2C8C1D9C540D7D9             825          DC    C'SHARE PRICE:'       TITLE                                                  
00091C                              826 OSHRPRC  DS    7C' '                 OUTPUT: SHARE PRICE                                    
000923 4040404040404040             827          DC    58C' '                63 SPACES                                              
                                    828 ******************************************************************                          
                                    829 *                 HEADER 4 STORAGE SECTION                       *                          
                                    830 * CONTAINS: ALL THE COLOUMN HEADERS FOR THE SALE DETAIL LINE     *                          
                                    831 ******************************************************************                          
00095D F0                           832 HEADER4  DC    C'0'                  DOUBLE SPACE CARRIAGE CONTROL                          
00095E C2D9C1D5C3C840D5             833          DC    C'BRANCH NAME'        TITLE                                                  
000969 4040404040404040             834          DC    22C' '                22 SPACES                                              
00097F C2D9D6D2C5D940D5             835          DC    C'BROKER NAME'        TITLE                                                  
00098A 4040404040404040             836          DC    24C' '                23 SPACES                                              
0009A2 C4C5D7D6E2C9E340             837          DC    C'DEPOSIT AMOUNT'     HEADER                                                 
0009B0 4040404040404040             838          DC    14C' '                15 SPACES                                              
0009BE E2C8C1D9C540C1D4             839          DC    C'SHARE AMOUNT'       TITLE                                                  
0009CA 4040404040404040             840          DC    14C' '                14 SPACES                                              
0009D8 C3D6D4D4C9E2E2C9             841          DC    C'COMMISSION'         TITLE                                                  
                                    842 ******************************************************************                          
                                    843 *                 HEADER 5 STORAGE SECTION                       *                          
                                    844 * CONTAINS: ALL THE HYPHENS THAT GO BELOW THE COLUMN HEADERS     *                          
                                    845 ******************************************************************                          
0009E2 40                           846 HEADER5  DC    C' '                  SINGLE SPACE CARRIAGE CONTROL                          
0009E3 6060606060606060             847          DC    20C'-'                20 HYPHENS                                             
0009F7 4040404040404040             848          DC    13C' '                13 SPACES                                              
000A04 6060606060606060             849          DC    25C'-'                25 HYPHENS                                             
000A1D 4040404040404040             850          DC    10C' '                 9  SPACES                                             
000A27 6060606060606060             851          DC    14C'-'                14 HYPHENS                                             
000A35 4040404040404040             852          DC    9C' '                 9  SPACES                                              
000A3E 6060606060606060             853          DC    18C'-'                18 HYPHENS                                             
000A50 4040404040404040             854          DC    10C' '                10 SPACES                                              
000A5A 6060606060606060             855          DC    14C'-'                14 HYPHENS                                             
                                    856 ******************************************************************                          
                                    857 *                 HEADER 6 STORAGE SECTION                       *                          
                                    858 * CONTAINS: THIS WILL BE THE BEGINNING OF THE SALE RECORD OUTPUT *                          
                                    859 ******************************************************************                          
000A68 F0                           860 OSALEREC DC    C'0'                    OSALEREC CARRIAGE CONTROL                            
000A69                              861 OBRNCNME DS    20C' '                  OUTPUT BRANCH NAME                                   
000A7D 4040404040404040             862          DC    13C' '                  SPACES                                               
000A8A                              863 OBRKRNME DS    25C' '                  OUTPUT BROKER NAME                                   

                                                                                                               Page   14            
  Active Usings: SALESRPT+X'1000',R11  SALESRPT,R12                                                                                 

  Loc  Object Code    Addr1 Addr2  Stmt   Source Statement                                  HLASM R6.0  2024/04/08 23.09            

000AA3 4040404040404040             864          DC    9C' '                   SPACES                                               
000AAC                              865 ODEPAMT  DS    15C' '                  OUTPUT DEPOSIT AMT                                   
000ABB 40404040404040               866          DC    7C' '                   SPACES                                               
000AC2                              867 OSHRAMT  DS    20C' '                  OUTPUT SHARE AMT                                     
000AD6 4040404040404040             868          DC    8C' '                   SPACES                                               
000ADE                              869 OCOMAMT  DS    15C' '                  OUTPUT COMMISSION AMT                                
                                    870 ******************************************************************                          
                                    871 *                 HEADER 7 STORAGE SECTION                       *                          
                                    872 * CONTAINS: THIS WILL CONTAIN THE HEADERS FOR THE TOTALS SECTION *                          
                                    873 ******************************************************************                          
000AED F0                           874 HEADER7  DC    C'0'                  DOUBLE SPACE STORAGE                                   
000AEE 4040404040404040             875          DC    39C' '                39 SPACES UNTIL FIRST INFO                             
000B15 D5E4D4C2C5D940D6             876          DC    C'NUMBER OF SALES'    HEADER                                                 
000B24 4040404040404040             877          DC    9C' '                 9 SPACES                                               
000B2D E3D6E3C1D340E2C1             878          DC    C'TOTAL SALES AMOUNT' HEADER                                                 
000B3F 4040404040404040             879          DC    9C' '                 9 SPACES                                               
000B48 E3D6E3C1D340E2C8             880          DC    C'TOTAL SHARE AMOUNT' HEADER                                                 
000B5A 4040404040404040             881          DC    8C' '                 8 SPACES                                               
000B62 E3D6E3C1D340C3D6             882          DC    C'TOTAL COMMISSION'   HEADER                                                 
                                    883 ******************************************************************                          
                                    884 *                 HEADER 8 STORAGE SECTION                       *                          
                                    885 * CONTAINS: THIS WLL CONTAIN THE HYPHENS FOR THE TOTALS SECTION  *                          
                                    886 ******************************************************************                          
000B72 40                           887 HEADER8  DC    C' '                  SINGLE SPACE CARRIAGE CONTROL                          
000B73 4040404040404040             888          DC    39C' '                39 SPACES                                              
000B9A 6060606060606060             889          DC    15C'-'                15 HYPHENS                                             
000BA9 4040404040404040             890          DC    9C' '                 9 SPACES                                               
000BB2 6060606060606060             891          DC    18C'-'                18 HYPHENS                                             
000BC4 4040404040                   892          DC    5C' '                 5 SPACES                                               
000BC9 6060606060606060             893          DC    22C'-'                22 HYPHENS                                             
000BDF 404040404040                 894          DC    6C' '                 6 SPACES                                               
000BE5 6060606060606060             895          DC    18C'-'                18 SPACES                                              
                                    896 ******************************************************************                          
                                    897 *                 HEADER 9 STORAGE SECTION                       *                          
                                    898 * CONTAINS: THIS WILL CONTAIN THE HEADERS FOR THE TOTALS SECTION *                          
                                    899 ******************************************************************                          
000BF7 F0                           900 HEADER9  DC    C'0'                  DOUBLE SPACE CARRIAGE CONTROL                          
000BF8 4040404040404040             901          DC    50C' '                50 SPACES UNTIL NEXT INFO                              
000C2A                              902 OSALECTR DS    4C' '                 OUTPUT : SALE COUNTER                                  
000C2E 4040404040404040             903          DC    9C' '                 9 SPACES                                               
000C37                              904 OTDEPAMT DS    18C' '                OUTPUT : TOTAL DEP AMT                                 
000C49 40404040                     905          DC    4C' '                 4 SPACES                                               
000C4D                              906 OTSHRAMT DS    23C' '                OUTPUT : TOTAL SHARE AMT                               
000C64 404040404040                 907          DC    6C' '                 6 SPACES                                               
000C6A                              908 OTCOMAMT DS    18C' '                OUTPUT : TOTAL COMM AMT                                
                                    909 ******************************************************************                          
                                    910 *                 HEADER 10 STORAGE SECTION                      *                          
                                    911 * CONTAINS: THIS WILL CONTAIN THE HEADERS FOR THE HIGH SALES SEC *                          
                                    912 ******************************************************************                          
000C7C F0                           913 HEADER10 DC    C'0'                              CARRIAGE CONTROL SNGL                      
000C7D 4040404040404040             914          DC    40C' '                            40 SPACES                                  
000CA5 C8C9C7C840E2C1D3             915          DC    C'HIGH SALES BROKER NAME'         TITLE                                      
000CBB 4040404040404040             916          DC    10C' '                            10 SPACES                                  
000CC5 C8C9C7C840E2C1D3             917          DC    C'HIGH SALES SHARE AMOUNT'        TITLE                                      
000CDC 4040404040404040             918          DC    37C' '                            37 SPACES                                  

                                                                                                               Page   15            
  Active Usings: SALESRPT+X'1000',R11  SALESRPT,R12                                                                                 

  Loc  Object Code    Addr1 Addr2  Stmt   Source Statement                                  HLASM R6.0  2024/04/08 23.09            

                                    919 ******************************************************************                          
                                    920 *                 HEADER 11 STORAGE SECTION                      *                          
                                    921 * CONTAINS: THIS WILL CONTAIN THE HYPHENS FOR THE HIGH SALES SEC *                          
                                    922 ******************************************************************                          
000D01 40                           923 HEADER11 DC    C' '                  DOUBLE SPACE CARRIAGE CONTROL                          
000D02 4040404040404040             924          DC    37C' '                37 SPACES                                              
000D27 6060606060606060             925          DC    25C'-'                25 HYPHENS                                             
000D40 4040404040404040             926          DC    10C' '                10 SPACES                                              
000D4A 6060606060606060             927          DC    23C'-'                23 HYPHENS                                             
000D61 4040404040404040             928          DC    37C' '                10 SPACES                                              
                                    929 ******************************************************************                          
                                    930 *                 HEADER 12 STORAGE SECTION                      *                          
                                    931 * CONTAINS: THIS WILL CONTAIN THE NAMES AND AMTS OF THE HS ACCTS *                          
                                    932 ******************************************************************                          
000D86 F0                           933 HSREC    DC    C'0'                  CARRIAGE CONTROL DOUBLE SPACE                          
000D87 4040404040404040             934          DC    37C' '                37 SPACES                                              
000DAC                              935 HSBRKNME DS    25C' '                HS BROKER NAME                                         
000DC5 40404040                     936          DC    4C' '                 4 SPACES                                               
000DC9 000000000000000C             937 HSSHRAMT DC    PL8'0'                PACKED LENGTH 8 FOR SHR AMT                            
000DD1 4040404040404040             938          DC    58C' '                58 SPACES                                              
                                    939 ******************************************************************                          
                                    940 *                 HEADER 13 STORAGE SECTION                      *                          
                                    941 * CONTAINS: THIS WILL CONTAIN THE NAMES AND AMTS FOR OUTPUT      *                          
                                    942 ******************************************************************                          
000E0B F0                           943 HIRECORD DC    C'0'                    CARRIAGE CONTROL DOUBLE SPACE                        
000E0C 4040404040404040             944          DC    37C' '                  37 SPACES                                            
000E31                              945 OHBRKNME DS    25C' '                  OUT HS BROKER NAME                                   
000E4A 4040404040404040             946          DC    13C' '                  13 SPACES                                            
000E57                              947 OHSHRAMT DS    20C' '                  OUT HS SHARE AMOUNT                                  
000E6B 4040404040404040             948          DC    37C' '                  37 SPACES                                            
                                    949 ******************************************************************                          
                                    950 *                 HEADER 14 STORAGE SECTION                      *                          
                                    951 * CONTAINS: THIS WILL CONTAIN COLUMN NAMES FOR HS ACCOUNTS       *                          
                                    952 ******************************************************************                          
000E90 F0                           953 HSTOTHD  DC    C'0'                              CARRIAGE CONTROL DBL                       
000E91 4040404040404040             954          DC    34C' '                            34 SPACES                                  
000EB3 D5E4D4C2C5D940D6             955          DC    C'NUMBER OF HIGH SALES BROKERS'   TITLE                                      
000ECF 40404040                     956          DC    4C' '                             4 SPACES                                   
000ED3 E3D6E3C1D340C8C9             957          DC    C'TOTAL HIGH SALES SHARE AMOUNT'  TITLE                                      
000EF0 4040404040404040             958          DC    37C' '                            37 SPACES                                  
                                    959 ******************************************************************                          
                                    960 *                 HEADER 15 STORAGE SECTION                      *                          
                                    961 * CONTAINS: THIS WILL CONTAIN THE HYPHENS FOR THE HS ACCTS       *                          
                                    962 ******************************************************************                          
000F15 40                           963 HSTOTHYP DC    C' '                    CARRIAGE CONTROL SINGLE SPACE                        
000F16 4040404040404040             964          DC    34C' '                  34 SPACES                                            
000F38 6060606060606060             965          DC    28C'-'                  28 HYPHENS                                           
000F54 40404040                     966          DC    4C' '                   4 SPACES                                             
000F58 6060606060606060             967          DC    29C'-'                  29 HYPHENS                                           
000F75 4040404040404040             968          DC    37C' '                  37 SPACES                                            
                                    969 ******************************************************************                          
                                    970 *                 HEADER 16 STORAGE SECTION                      *                          
                                    971 * CONTAINS: THIS WILL CONTAIN THE OUTPUT FOR THE HS TOTAL ACCTS  *                          
                                    972 ******************************************************************                          
000F9A F0                           973 HSTOTAL  DC    C'0'                    CARRIAGE CONTROL DOUBLE SPACE                        

                                                                                                               Page   16            
  Active Usings: SALESRPT+X'1000',R11  SALESRPT,R12                                                                                 

  Loc  Object Code    Addr1 Addr2  Stmt   Source Statement                                  HLASM R6.0  2024/04/08 23.09            

000F9B 4040404040404040             974          DC    58C' '                  58 SPACES                                            
000FD5                              975 OHSCTR   DS    4C' '                   OUT HS CTR                                           
000FD9 4040404040404040             976          DC    10C' '                  10 SPACES                                            
000FE3                              977 OHSTSHRS DS    23C' '                  OUT HS TOTAL SHARE AMT                               
000FFA 4040404040404040             978          DC    37C' '                  37 SPACES                                            
                                    979 ******************************************************************                          
                                    980 *                 END OF THE STORAGE SECTION                     *                          
                                    981 *                                                                *                          
                                    982 *              BEGINNING OF THE DCB DECLARATIONS                 *                          
                                    983 ******************************************************************                          
                                    984 *                                                                                           
                                    985 *  INPUT DCB                                                                                
                                    986 *                                                                                           
                                    987 INDCB    DCB   DDNAME=SALESFLE,                                        X                    
                                                       DEVD=DA,                                                X                    
                                                       DSORG=PS,                                               X                    
                                                       MACRF=GL,                                               X                    
                                                       RECFM=FB,                                               X                    
                                                       LRECL=80,                                               X                    
001020 0000000000000000                                EODAD=EOFRTN                                                                 
                                   1029 *                                                                                           
                                   1030 *  INPUT DCB'S EOF FLAG AND EOF ROUTINE                                                     
                                   1031 *                                                                                           
001080 D5                          1032 EOFFLAG  DC    C'N'                 EOFFLAG FOR INPUT FILE                                  
                                   1033 *                                                                                           
001081 00                                                                                                                           
001082 92E8 B080      01080        1034 EOFRTN   MVI   EOFFLAG,C'Y'          SET EOF FLAG TO Y                                      
001086 07FE                        1035          BR    14                    BRANCH TO STMT FOLLOWING GET                           
                                   1036 *                                                                                           
                                   1037 ***************************************************************                             
                                   1038 *  OUTPUT: REPORT DCB                                         *                             
                                   1039 ***************************************************************                             
                                   1040 RPTDCB   DCB   DDNAME=RPTFLE,                                          X                    
                                                       DEVD=DA,                                                X                    
                                                       DSORG=PS,                                               X                    
                                                       MACRF=PL,                                               X                    
                                                       RECFM=FBA,                                              X                    
                                                       LRECL=133,                                              X                    
001088 0000000000000000                                BLKSIZE=3990                                                                 
                                   1082 ***************************************************************                             
                                   1083 *  INPUT/OUTPUT: HIGH SALE REPORT DCB                         *                             
                                   1084 ***************************************************************                             
                                   1085 HSDCB    DCB   DDNAME=HSFLE,                                           X                    
                                                       DEVD=DA,                                                X                    
                                                       DSORG=PS,                                               X                    
                                                       MACRF=(GM,PM),                                          X                    
                                                       RECFM=FB,                                               X                    
                                                       LRECL=133,                                              X                    
                                                       BLKSIZE=3990,                                           X                    
0010E8 0000000000000000                                EODAD=EOFRTN2                                                                
                                   1127 *                                                                                           
001148 D5                          1128 EOFFLAG2  DC    C'N'                    EOFFLAG FOR SALE FILE                               
                                   1129 *                                                                                           
001149 00                                                                                                                           
00114A 92E8 B148      01148        1130 EOFRTN2  MVI   EOFFLAG2,C'Y'            SET EOF FLAG TO Y                                   

                                                                                                               Page   17            
  Active Usings: SALESRPT+X'1000',R11  SALESRPT,R12                                                                                 

  Loc  Object Code    Addr1 Addr2  Stmt   Source Statement                                  HLASM R6.0  2024/04/08 23.09            

00114E 07FE                        1131          BR    14                      BRANCH TO STMT FOLLOWING GET                         
                                   1132 *                                                                                           
000000                             1133          END   SALESRPT                                                                     

                                                 Relocation Dictionary                                         Page   18            


   Pos.Id   Rel.Id   Address  Type    Length  Action                                        HLASM R6.0  2024/04/08 23.09            

  00000001 00000001 00000024   A         4       +                                                                                  
  00000001 00000001 0000002C   A         4       +                                                                                  
  00000001 00000001 000000F9   A         3       +                                                                                  
  00000001 00000001 00000119   A         3       +                                                                                  
  00000001 00000001 0000011D   A         3       +                                                                                  
  00000001 00000001 0000040D   A         3       +                                                                                  
  00000001 00000001 00000411   A         3       +                                                                                  
  00000001 00000001 0000041D   A         3       +                                                                                  
  00000001 00000001 000005C9   A         3       +                                                                                  
  00000001 00000001 000005CD   A         3       +                                                                                  
  00000001 00000001 00001041   A         3       +                                                                                  
  00000001 00000001 00001109   A         3       +                                                                                  

                               Ordinary Symbol and Literal Cross Reference                                     Page   19            


Symbol   Length   Value     Id    R Type Asm  Program   Defn References                     HLASM R6.0  2024/04/08 23.09            

$FUNDREC      1 00000000 FFFFFFFF     J                   32  203U                                                                  
$SALEREC      1 00000000 FFFFFFFE     J                   40  240U                                                                  
CLOSEREC      4 00000408 00000001     I                  508  205B                                                                  
COMMCALC      6 00000282 00000001     I                  316  314B                                                                  
COMMS         6 00000246 00000001     I                  305  288B                                                                  
COMM2         6 00000262 00000001     I                  310  308B                                                                  
COMM3         6 00000272 00000001     I                  313  311B                                                                  
CURRDATE      1 000007CF 00000001     C  C               800  120M                                                                  
CURRTIME      5 00000854 00000001     X  X               811  127M  141M                                                            
DATETIME      4 000007A8 00000001     F  F               790  112   119   126                                                       
ENDLOOP1      2 00000342 00000001     H  H               410  247B                                                                  
ENDLOOP2      2 0000052C 00000001     H  H               645  561B                                                                  
EOFFLAG       1 00001080 00000001     C  C              1032  204   246  1034M                                                      
EOFFLAG2      1 00001148 00000001     C  C              1128  560  1130M                                                            
EOFRTN        4 00001082 00000001     I                 1034 1004                                                                   
EOFRTN2       4 0000114A 00000001     I                 1130 1102                                                                   
HEADER1       1 000007CE 00000001     C  C               799  344   455   585   669                                                 
HEADER10      1 00000C7C 00000001     C  C               913  612                                                                   
HEADER11      1 00000D01 00000001     C  C               923  621                                                                   
HEADER2       1 00000853 00000001     C  C               810  353   464   594   678                                                 
HEADER3       1 000008D8 00000001     C  C               823  362   473   603   687                                                 
HEADER4       1 0000095D 00000001     C  C               832  371                                                                   
HEADER5       1 000009E2 00000001     C  C               846  380                                                                   
HEADER7       1 00000AED 00000001     C  C               874  482                                                                   
HEADER8       1 00000B72 00000001     C  C               887  491                                                                   
HEADER9       1 00000BF7 00000001     C  C               900  500                                                                   
HIRECORD      1 00000E0B 00000001     C  C               943  632                                                                   
HSBRKNME      1 00000DAC 00000001     C  C               935  289M  563                                                             
HSDCB         4 000010E8 00000001     F  F              1090  175   295   512   526   552   638   723                               
HSREC         1 00000D86 00000001     C  C               933  296   553   639                                                       
HSSHRAMT      8 00000DC9 00000001     P  P               937  290M  564M  566   568                                                 
HSTOTAL       1 00000F9A 00000001     C  C               973  714                                                                   
HSTOTHD       1 00000E90 00000001     C  C               953  696                                                                   
HSTOTHYP      1 00000F15 00000001     C  C               963  705                                                                   
IBRKRNME     25 00000014 FFFFFFFE     C  C                42  259   289                                                             
IBRNCNME     20 00000000 FFFFFFFE     C  C                41  258                                                                   
ICOMMFLG      1 0000003B FFFFFFFE     Z  Z                45  306                                                                   
ICOMPCT1      6 00000028 FFFFFFFF     Z  Z                35  220                                                                   
ICOMPCT2      6 0000002E FFFFFFFF     Z  Z                36  221                                                                   
ICOMPCT3      6 00000034 FFFFFFFF     Z  Z                37  222                                                                   
IDEPAMT      10 0000002D FFFFFFFE     Z  Z                43  263                                                                   
IFUNDNME     35 00000005 FFFFFFFF     C  C                34  216                                                                   
IHB0003       1 00000024 00000001     U                   76   74                                                                   
IHB0003A      1 00000028 00000001     U                   78   75B                                                                  
IHB0007D      4 0000004C 00000001     F  F                98   96                                                                   
IHB0007W      2 00000068 00000001     H  H               105   97B                                                                  
INDCB         4 00001020 00000001     F  F               992  151   197   234   399   510                                           
ISHRPRC       5 00000000 FFFFFFFF     Z  Z                33  209                                                                   
JOBNAME       8 000008D0 00000001     C  C               818   77                                                                   
LOOP1         4 000001A0 00000001     I                  246  404B                                                                  
LOOP2         4 0000045E 00000001     I                  560  644B                                                                  
MERIDIEM      1 0000085A 00000001     C  C               813  121M  134M                                                            
NOCHANGE      4 000000F4 00000001     I                  149  130B  137B                                                            
NOHDR2        4 00000500 00000001     I                  628  572B                                                                  
NOHEADER      4 0000031A 00000001     I                  389  332B                                                                  

                               Ordinary Symbol and Literal Cross Reference                                     Page   20            


Symbol   Length   Value     Id    R Type Asm  Program   Defn References                     HLASM R6.0  2024/04/08 23.09            

OBRKRNME      1 00000A8A 00000001     C  C               863  259M                                                                  
OBRNCNME      1 00000A69 00000001     C  C               861  258M                                                                  
OCOMAMT       1 00000ADE 00000001     C  C               869  317   318M  319M                                                      
ODEPAMT       1 00000AAC 00000001     C  C               865  264   265M  266M                                                      
OFUNDNME      1 000007FF 00000001     C  C               802  216M                                                                  
OHBRKNME      1 00000E31 00000001     C  C               945  563M                                                                  
OHSCTR        1 00000FD5 00000001     C  C               975  652M  653M                                                            
OHSHRAMT      1 00000E57 00000001     C  C               947  565M  566M                                                            
OHSTSHRS      1 00000FE3 00000001     C  C               977  655M  656M                                                            
OPAGECTR      1 0000084F 00000001     C  C               805  334M  335M  444M  445M  574M  575M  658M  659M                        
OPENOK1       4 00000114 00000001     I                  171  154B                                                                  
OPENOK2       4 00000138 00000001     I                  197  178B                                                                  
OPENOK3       4 00000438 00000001     I                  543  529B                                                                  
OSALECTR      1 00000C2A 00000001     C  C               902  412M  413M                                                            
OSALEREC      1 00000A68 00000001     C  C               860  253M  254M  254   393                                                 
OSHRAMT       1 00000AC2 00000001     C  C               867  279   280M  281M                                                      
OSHRPRC       1 0000091C 00000001     C  C               826  210   211M  212M                                                      
OTCOMAMT      1 00000C6A 00000001     C  C               908  430   431M  432M                                                      
OTDEPAMT      1 00000C37 00000001     C  C               904  417M  418M                                                            
OTSHRAMT      1 00000C4D 00000001     C  C               906  424M  425M                                                            
OUTHOUR       1 000007CC 00000001     C  C               794  139M  140M  141                                                       
PCALC        11 0000079C 00000001     P  P               786  273M  274M  275M  276M  277   305M  309M  312M  315M  316M            
                                                              319   322                                                             
PCOMMFLG      2 00000767 00000001     P  P               774  306M  307   310   313                                                 
PCOMPCT1      4 0000075B 00000001     P  P               771  220M  309                                                             
PCOMPCT2      4 0000075F 00000001     P  P               772  221M  312                                                             
PCOMPCT3      4 00000763 00000001     P  P               773  222M  315                                                             
PDEPAMT       6 00000771 00000001     P  P               780  263M  266   269   273   305                                           
PPAGECTR      2 0000076F 00000001     P  P               778  333M  335   443M  445   545M  573M  575   657M  659                   
PSALECTR      2 0000076D 00000001     P  P               777  249M  413   544M  569M  653                                           
PSHRAMT       8 0000077E 00000001     P  P               782  277M  278M  281   282   287   290                                     
PSHRPRC       3 00000758 00000001     P  P               770  209M  212   275                                                       
PTCOMAMT      7 00000795 00000001     P  P               785  322M  429M  432                                                       
PTDEPAMT      7 00000777 00000001     P  P               781  269M  418                                                             
PTEMPHR       2 000007CA 00000001     P  P               793  128M  129   135M  136   138M  140                                     
PTSHRAMT      9 00000786 00000001     P  P               783  282M  425   546M  568M  656                                           
RECORD        1 00000708 00000001     C  C               768  201M  238M                                                            
REGS          4 000006C0 00000001     F  F               767   58                                                                   
RPTDCB        4 00001088 00000001     F  F              1045  173   340   349   358   367   376   389   451   460   469             
                                                              478   487   496   581   590   599   608   617   628   665             
                                                              674   683   692   701   710   725                                     
SALESRPT      1 00000000 00000001     J                   53   57U   65U  762   762  1133                                           
SETDATE      13 000007B8 00000001     C  C               791  118M  119M  120                                                       
SETTIME       5 000007C5 00000001     C  C               792  125M  126M  127   128                                                 
=CL2'AM'      2 0000061C 00000001     C                  743  121                                                                   
=CL2'PM'      2 00000620 00000001     C                  745  134                                                                   
=F'18'        4 000005FC 00000001     F                  739  331   571                                                             
=PL1'0'       1 00000684 00000001     P                  759  544   545   546                                                       
=PL1'1'       1 0000064E 00000001     P                  753  135   249   333   443   569   573   657                               
=PL2'1'       2 00000624 00000001     P                  747  307                                                                   
=PL2'12'      2 0000061E 00000001     P                  744  129   138                                                             
=PL2'13'      2 00000622 00000001     P                  746  136                                                                   
=PL2'2'       2 00000626 00000001     P                  748  310                                                                   
=PL2'3'       2 00000628 00000001     P                  749  313                                                                   
=PL5'50000.0000'                                                                                                                    

                               Ordinary Symbol and Literal Cross Reference                                     Page   21            


Symbol   Length   Value     Id    R Type Asm  Program   Defn References                     HLASM R6.0  2024/04/08 23.09            

              5 00000668 00000001     P                  757  287                                                                   
=X'20217A2020'                                                                                                                      
              5 00000649 00000001     X                  752  125                                                                   
=X'212021'                                                                                                                          
              3 0000064F 00000001     X                  754  139                                                                   
=X'402020206B2020206B2021204B2020'                                                                                                  
             15 00000659 00000001     X                  756  265   318                                                             
=X'40202021'                                                                                                                        
              4 00000600 00000001     X                  740  334   444   574   658                                                 
=X'4020206B2020206B2020206B2021204B2020'                                                                                            
             18 0000062A 00000001     X                  750  417   431                                                             
=X'4020206B2020206B2020206B2021204B20202020'                                                                                        
             20 000005E8 00000001     X                  738  280                                                                   
=X'40202120'                                                                                                                        
              4 00000604 00000001     X                  741  412   652                                                             
=X'40202120206120206120202020'                                                                                                      
             13 0000063C 00000001     X                  751  118                                                                   
=X'402021204B2020'                                                                                                                  
              7 00000652 00000001     X                  755  211                                                                   
=X'40206B2020206B2020206B2020206B2021204B20202020'                                                                                  
             23 0000066D 00000001     X                  758  424                                                                   
=X'4040206B2020206B2020206B2021204B20202020'                                                                                        
             20 00000608 00000001     X                  742  565                                                                   
=X'40406B2020206B2020206B2020206B2021204B20202020'                                                                                  
             23 00000685 00000001     X                  760  655                                                                   

                                  Unreferenced Symbols Defined in CSECTs                                       Page   22            


  Defn  Symbol                                                                              HLASM R6.0  2024/04/08 23.09            

   307  COMM1                                                                                                                       
   784  PCOMMAMT                                                                                                                    
   775  PTCOMPCT                                                                                                                    

                                          Macro and Copy Code Source Summary                                   Page   23            


 Con Source                                        Volume    Members                        HLASM R6.0  2024/04/08 23.09            

  L1 SYS1.MACLIB                                   VTMVSC    ABEND    CLOSE    DCB      GET      IHBINNRA IHBINNRB                  
                                                             IHBINNRR IHBOPLST IHB01    LINK     OPEN     PUT                       
                                                             SYSSTATE TIME                                                          

                                                Dsect Cross Reference                                          Page   24            


Dsect     Length      Id       Defn                                                         HLASM R6.0  2024/04/08 23.09            

$FUNDREC 00000050  FFFFFFFF      32                                                                                                 
$SALEREC 00000050  FFFFFFFE      40                                                                                                 

                                                      Using Map                                                Page   25            


                                                                                            HLASM R6.0  2024/04/08 23.09            
  Stmt  -----Location----- Action ----------------Using----------------- Reg Max     Last Label and Using Text                      
          Count      Id           Type          Value    Range     Id        Disp    Stmt                                           

    57  00000006  00000001 USING  ORDINARY    00000000 00001000 00000001  12 00FE3    721 SALESRPT,12                               
    65  0000001C  00000001 USING  ORDINARY    00001000 00001000 00000001  11 00148   1130 SALESRPT+4096,11                          
   203  0000014C  00000001 USING  ORDINARY    00000000 00001000 FFFFFFFF   3 00034    222 $FUNDREC,3                                
   224  00000188  00000001 DROP                                            3              3                                         
   240  000001A0  00000001 USING  ORDINARY    00000000 00001000 FFFFFFFE   3 0003B    306 $SALEREC,3                                
   411  00000342  00000001 DROP                                            3              3                                         

                                   General Purpose Register Cross Reference                                    Page   26            


 Register  References (M=modified, B=branch, U=USING, D=DROP, N=index)                      HLASM R6.0  2024/04/08 23.09            

    0(0)      55   161M  162M  163   185M  186M  187   296M  536M  537M  538   553M  639M  733M                                     
    1(1)      55    74M   95M   96M  106   107   113   149M  160M  163M  171M  184M  187M  197M  199   201   202   210M             
             212M  213M  214   234M  236   238   239   264M  266M  267M  268   279M  295M  298   317M  319M  320M  321              
             340M  342   344   349M  351   353   358M  360   362   367M  369   371   376M  378   380   389M  391   393              
             399M  401   403   418M  419M  420   430M  432M  433M  434   451M  453   455   460M  462   464   469M  471              
             473   478M  480   482   487M  489   491   496M  498   500   508M  524M  535M  538M  552M  555   581M  583              
             585   590M  592   594   599M  601   603   608M  610   612   617M  619   621   628M  630   632   638M  641              
             643   665M  667   669   674M  676   678   683M  685   687   692M  694   696   701M  703   705   710M  712              
             714   721M  733M                                                                                                       
    2(2)      55   229M  331   381M  381   394M  394   543M  571   622M  622   633M  633   733M                                     
    3(3)      55   111M  202M  203U  224D  239M  240U  403M  411D  643M  733M                                                       
    4(4)      55   111M  733M                                                                                                       
    5(5)      55   733M                                                                                                             
    6(6)      55   733M                                                                                                             
    7(7)      55   733M                                                                                                             
    8(8)      55   733M                                                                                                             
    9(9)      55   733M                                                                                                             
   10(A)      55   733M                                                                                                             
   11(B)      55    63M   64M   64    65U  733M                                                                                     
   12(C)      55    56M   57U   63   733M                                                                                           
   13(D)      55    59    61M  731M  731   732   733                                                                                
   14(E)      55    58M   59    60    60    61   108M  109M  109N  110M  110N  111   111M  112M  113   200M  237M  299M             
             343M  352M  361M  370M  379M  392M  402M  454M  463M  472M  481M  490M  499M  556M  584M  593M  602M  611M             
             620M  631M  642M  668M  677M  686M  695M  704M  713M  732M  735B 1035B 1131B                                           
   15(F)      55    56    82M  153M  153   177M  177   198M  198   199M  200B  235M  235   236M  237B  297M  297   298M             
             299B  341M  341   342M  343B  350M  350   351M  352B  359M  359   360M  361B  368M  368   369M  370B  377M             
             377   378M  379B  390M  390   391M  392B  400M  400   401M  402B  452M  452   453M  454B  461M  461   462M             
             463B  470M  470   471M  472B  479M  479   480M  481B  488M  488   489M  490B  497M  497   498M  499B  528M             
             528   554M  554   555M  556B  582M  582   583M  584B  591M  591   592M  593B  600M  600   601M  602B  609M             
             609   610M  611B  618M  618   619M  620B  629M  629   630M  631B  640M  640   641M  642B  666M  666   667M             
             668B  675M  675   676M  677B  684M  684   685M  686B  693M  693   694M  695B  702M  702   703M  704B  711M             
             711   712M  713B  730M  730                                                                                            

                                  Diagnostic Cross Reference and Assembler Summary                             Page   27            


                                                                                            HLASM R6.0  2024/04/08 23.09            

     No Statements Flagged in this Assembly                                                                                         
HIGH LEVEL ASSEMBLER, 5696-234, RELEASE 6.0, PTF UI93396                                                                            

SYSTEM: z/OS 02.05.00              JOBNAME: KC03AE4A    STEPNAME: JSTEP01    PROCSTEP: (NOPROC)                                     

Unicode Module:   ASMA047C   From Page     1148   To Page    17584           ECECP: International 1                                 
Data Sets Allocated for this Assembly                                                                                               
 Con DDname   Data Set Name                                Volume  Member                                                           
  P1 SYSIN    KC03AE4.KC03AE4A.JOB07090.D0000101.?                                                                                  
  L1 SYSLIB   SYS1.MACLIB                                  VTMVSC                                                                   
     SYSLIN   SYS24099.T230950.RA000.KC03AE4A.OBJMOD.H01   KCTR01                                                                   
     SYSPRINT KC03AE4.KC03AE4A.JOB07090.D0000102.?                                                                                  
                                                                                                                                    
  26728K allocated to Buffer Pool       Storage required     684K                                                                   
    693 Primary Input Records Read         4738 Library Records Read                  0 Work File Reads                             
      0 ASMAOPT Records Read               1059 Primary Print Records Written         0 Work File Writes                            
     92 Object Records Written                0 ADATA Records Written                                                               

Assembly Start Time: 23.09.52 Stop Time: 23.09.52 Processor Time: 01.11.34.9672                                                     
Return Code 000                                                                                                                     

z/OS V2 R5 BINDER     23:09:54 MONDAY APRIL  8, 2024                                                                    
BATCH EMULATOR  JOB(KC03AE4A) STEP(JSTEP02 ) PGM= HEWL                                                                  
                                                                                                                        
                                                                                                                        
                                                                                                                        
                                *** O P E R A T I O N   S U M M A R Y   R E P O R T ***                                 
                                                                                                                        

PROCESSING OPTIONS:                                                                                                     
                                                                                                                        
   ALIASES             NO                                                                                               
   ALIGN2              NO                                                                                               
   AMODE               UNSPECIFIED                                                                                      
   CALL                YES                                                                                              
   CASE                UPPER                                                                                            
   COMPAT              UNSPECIFIED                                                                                      
   COMPRESS            AUTO                                                                                             
   DCBS                NO                                                                                               
   DYNAM               NO                                                                                               
   EXTATTR             UNSPECIFIED                                                                                      
   EXITS:              NONE                                                                                             
   FILL                NONE                                                                                             
   GID                 UNSPECIFIED                                                                                      
   HOBSET              NO                                                                                               
   INFO                NO                                                                                               
   LET                 04                                                                                               
   LINECT              060                                                                                              
   LIST                SUMMARY                                                                                          
   LISTPRIV            NO                                                                                               
   LONGPARM            NO                                                                                               
   MAP                 NO                                                                                               
   MAXBLK              032760                                                                                           
   MODMAP              NO                                                                                               
   MSGLEVEL            00                                                                                               
   OVLY                NO                                                                                               
   PRINT               YES                                                                                              
   RES                 NO                                                                                               
   REUSABILITY         UNSPECIFIED                                                                                      
   RMODE               UNSPECIFIED                                                                                      
   RMODEX              NO                                                                                               
   SIGN                NO                                                                                               
   STORENX             NOREPLACE                                                                                        
   STRIPCL             NO                                                                                               
   STRIPSEC            NO                                                                                               
   SYMTRACE                                                                                                             
   TERM                NO                                                                                               
   TRAP                ON                                                                                               
   UID                 UNSPECIFIED                                                                                      
   UPCASE              NO                                                                                               
   WKSPACE             000000K,000000K                                                                                  
   XCAL                NO                                                                                               
   XREF                NO                                                                                               
   ***END OF OPTIONS***                                                                                                 
                                                                                                                        
                                                                                                                        
                                                                                                                        
                                                                                                                        

SAVE OPERATION SUMMARY:                                                                                                 
                                                                                                                        
   MEMBER NAME         SALESRPT                                                                                         
   LOAD LIBRARY        KC03AE4.CSCI465.LOADLIB                                                                          
   PROGRAM TYPE        PROGRAM OBJECT(FORMAT 2)                                                                         
   VOLUME SERIAL       KCTR36                                                                                           
   DISPOSITION         REPLACED                                                                                         
   TIME OF SAVE        23.09.55  APR  8, 2024                                                                           
                                                                                                                        
                                                                                                                        

SAVE MODULE ATTRIBUTES:                                                                                                 
                                                                                                                        
   AC                  000                                                                                              
   AMODE                24                                                                                              
   COMPRESSION         NONE                                                                                             
   DC                  NO                                                                                               
   EDITABLE            YES                                                                                              
   EXCEEDS 16MB        NO                                                                                               
   EXECUTABLE          YES                                                                                              
   LONGPARM            NO                                                                                               
   MIGRATABLE          YES                                                                                              
   OL                  NO                                                                                               
   OVLY                NO                                                                                               
   PACK,PRIME          NO,NO                                                                                            
   PAGE ALIGN          NO                                                                                               
   REFR                NO                                                                                               
   RENT                NO                                                                                               
   REUS                NO                                                                                               
   RMODE                24                                                                                              
   SCTR                NO                                                                                               
   SIGN                NO                                                                                               
   SSI                                                                                                                  
   SYM GENERATED       NO                                                                                               
   TEST                NO                                                                                               
   XPLINK              NO                                                                                               
   MODULE SIZE (HEX)   00001150                                                                                         
   DASD SIZE (HEX)     00002000                                                                                         
                                                                                                                        
                                                                                                                        

 ENTRY POINT AND ALIAS SUMMARY:                                                                                         
                                                                                                                        
 NAME:            ENTRY TYPE AMODE C_OFFSET CLASS NAME        STATUS                                                    
                                                                                                                        
 SALESRPT          MAIN_EP      24 00000000 B_TEXT                                                                      
                                                                                                                        
                         *** E N D   O F   O P E R A T I O N   S U M M A R Y   R E P O R T ***                          
                                                                                                                        
                                                                                                                        
                                                                                                                        
                                                                                                                        

z/OS V2 R5 BINDER     23:09:54 MONDAY APRIL  8, 2024                                                                    
BATCH EMULATOR  JOB(KC03AE4A) STEP(JSTEP02 ) PGM= HEWL                                                                  
IEW2008I 0F03 PROCESSING COMPLETED.  RETURN CODE =  0.                                                                  
                                                                                                                        
                                                                                                                        
                                                                                                                        

----------------------                                                                                                  
MESSAGE SUMMARY REPORT                                                                                                  
----------------------                                                                                                  
 TERMINAL MESSAGES      (SEVERITY = 16)                                                                                 
 NONE                                                                                                                   
                                                                                                                        
 SEVERE MESSAGES        (SEVERITY = 12)                                                                                 
 NONE                                                                                                                   
                                                                                                                        
 ERROR MESSAGES         (SEVERITY = 08)                                                                                 
 NONE                                                                                                                   
                                                                                                                        
 WARNING MESSAGES       (SEVERITY = 04)                                                                                 
 NONE                                                                                                                   
                                                                                                                        
 INFORMATIONAL MESSAGES (SEVERITY = 00)                                                                                 
 2008                                                                                                                   
                                                                                                                        
                                                                                                                        
 **** END OF MESSAGE SUMMARY REPORT ****                                                                                
                                                                                                                        

04/08/2024                                       WASHINGTON & LINCOLN INVESTMENTS                                          PAGE:   1
10:09 PM                                        BROKER SALES AND COMMISSIONS REPORT                                JOBNAME: KC03AE4A

                                                       SHARE PRICE:  $9.35                                                          

BRANCH NAME                      BROKER NAME                        DEPOSIT AMOUNT              SHARE AMOUNT              COMMISSION
--------------------             -------------------------          --------------         ------------------          -------------

Athens, Greece                   George Schipodokas                      $1,124.71                   120.2900                  $0.91

Athens, Greece                   Boodra Makedonas                        $3,704.71                   396.2260                  $4.89

Athens, Greece                   Aristotle Onassis                      $14,173.13                 1,515.8430                 $11.48

Athens, Greece                   Maria Callas                           $15,401.52                 1,647.2210                 $12.47

Athens, Greece                   Kostas Dalaras                          $7,740.68                   827.8800                  $6.27

Athens, Greece                   Peter Bogdonas                          $2,334.72                   249.7030                  $3.08

Berlin, Germany                  Erich Kleiber                          $93,618.48                10,012.6720                 $75.83

Berlin, Germany                  Wilhelm Furtwaengler                  $716,614.94                76,643.3090                $580.45

Berlin, Germany                  Adolph Dege                            $80,821.35                 8,643.9950                $106.68

Berlin, Germany                  Johannes Klopp                        $400,870.20                42,873.8180                $324.70

Berlin, Germany                  Eugen Jochum                        $9,999,999.99             1,069,518.7160              $5,200.00

Bonn, Germany                    Ludwig van Beethoven                    $4,061.21                   434.3540                  $5.36

Bonn, Germany                    Uwe Schmidt                           $207,430.39                22,185.0680                $273.80

Bonn, Germany                    Helga Dernesch                            $841.52                    90.0020                  $1.11

Bonn, Germany                    Richard Strauss                       $310,814.02                33,242.1410                $410.27

Chicago, U.S.                    Maurizio Damilano                   $4,000,081.02               427,816.1520              $2,080.04

Chicago, U.S.                    Chi Yen Weh                           $431,081.00                46,104.9200                $349.17

Chicago, U.S.                    Steve Peplowski                       $241,001.21                25,775.5300                $318.12

04/08/2024                                       WASHINGTON & LINCOLN INVESTMENTS                                          PAGE:   2
10:09 PM                                        BROKER SALES AND COMMISSIONS REPORT                                JOBNAME: KC03AE4A

                                                       SHARE PRICE:  $9.35                                                          

BRANCH NAME                      BROKER NAME                        DEPOSIT AMOUNT              SHARE AMOUNT              COMMISSION
--------------------             -------------------------          --------------         ------------------          -------------

Chicago, U.S.                    Michael Smith                         $314,081.22                33,591.5740                $254.40

Chicago, U.S.                    Charles Medley                        $310,481.23                33,206.5490                $251.48

Chicago, U.S.                    Risa Rogan                            $310,841.24                33,245.0520                $410.31

Chicago, U.S.                    Theodore Thomas                       $310,814.25                33,242.1660                $251.75

Chicago, U.S.                    Frederick Stock                       $310,812.46                33,241.9740                $251.75

Dublin, Ireland                  Billy O'Leary                         $310,821.42                33,242.9330                $410.28

Dublin, Ireland                  Anna Owen                             $331,083.14                35,409.9610                $437.02

Belfast, N. Ireland              Chet Manassas                          $51,223.41                 5,478.4400                 $67.61

Belfast, N. Ireland              Shelley Mann                          $330,000.52                35,294.1730                $435.60

Belfast, N. Ireland              Philip Battenberg                       $3,111.60                   332.7910                  $4.10

Edinburgh, U.K.                  Billy Connolly                        $310,381.72                33,195.9060                $409.70

Edinburgh, U.K.                  Omar Sharif                           $310,831.12                33,243.9700                $410.29

Edinburgh, U.K.                  Julie Christie                        $310,813.12                33,242.0450                $410.27

Edinburgh, U.K.                  James Oxfordshire                     $310,811.32                33,241.8520                $410.27

Frankfurt, Germany               Johannes Dundor                       $460,641.05                49,266.4220                $608.04

Frankfurt, Germany               Gretel Decker                         $180,764.08                19,333.0570                $238.60

Frankfurt, Germany               Adam Dieffenbach                      $606,825.41                64,901.1130                $491.52

Hong Kong, China                 Mao Zedong                            $608,627.12                65,093.8100                $492.98

04/08/2024                                       WASHINGTON & LINCOLN INVESTMENTS                                          PAGE:   3
10:09 PM                                        BROKER SALES AND COMMISSIONS REPORT                                JOBNAME: KC03AE4A

                                                       SHARE PRICE:  $9.35                                                          

BRANCH NAME                      BROKER NAME                        DEPOSIT AMOUNT              SHARE AMOUNT              COMMISSION
--------------------             -------------------------          --------------         ------------------          -------------

Hong Kong, China                 Zhou Enlai                            $608,266.12                65,055.2000                $492.69

Hong Kong, China                 Zhau Ziyang                           $698,276.12                74,681.9380                $921.72

Hong Kong, China                 Chiang Kai-shek                     $2,618,281.62               280,030.1200              $2,120.80

Hong Kong, China                 Gau-Yin Lau                            $60,829.12                 6,505.7880                 $80.29

Hong Kong, China                 Stephanie Buckingham                  $460,821.23                49,285.6930                $373.26

Hong Kong, China                 Simon Draper                          $640,821.23                68,537.0300                $845.88

London, U.K.                     Elizabeth Windsor                     $714,492.35                76,416.2940                $943.12

London, U.K.                     Charles Windsor                       $217,916.20                23,306.5450                $176.51

London, U.K.                     Andrew Windsor                        $661,102.24                70,706.1220                $535.49

London, U.K.                     Michael Windsor                     $1,066,362.25               114,049.4390                $863.75

London, U.K.                     Phillip Windsor                       $116,641.61                12,475.0390                $153.96

London, U.K.                     William Windsor                       $221,661.72                23,707.1360                $292.59

Los Angeles, U.S.                William Mills                         $111,966.78                11,975.0570                $147.79

Los Angeles, U.S.                Catherine Monteiro                  $9,999,999.99             1,069,518.7160             $13,200.00

Los Angeles, U.S.                Jason Landau                          $500,000.78                53,476.0190                $660.00

Los Angeles, U.S.                Trevor Pinnicle                       $150,000.00                16,042.7810                $198.00

Kyiv, Ukraine                    Yvgeny Yevtushenko                    $135,191.78                14,459.0140                $178.45

Kyiv, Ukraine                    Vladimir Ashkenazy                    $111,591.78                11,934.9500                 $90.38

04/08/2024                                       WASHINGTON & LINCOLN INVESTMENTS                                          PAGE:   4
10:09 PM                                        BROKER SALES AND COMMISSIONS REPORT                                JOBNAME: KC03AE4A

                                                       SHARE PRICE:  $9.35                                                          

BRANCH NAME                      BROKER NAME                        DEPOSIT AMOUNT              SHARE AMOUNT              COMMISSION
--------------------             -------------------------          --------------         ------------------          -------------

Kyiv, Ukraine                    Serge Rachmaninov                      $11,951.78                 1,278.2650                 $15.77

Kyiv, Ukraine                    Leo Tolstoy                           $101,915.77                10,900.0820                $134.52

Kyiv, Ukraine                    Fyodor Dostoevsky                      $11,333.63                 1,212.1530                  $9.18

Kyiv, Ukraine                    Dmitri Shostakovich                   $181,194.74                19,379.1170                $146.76

New York, U.S.                   Gary Graffman                         $118,191.78                12,640.8320                 $95.73

New York, U.S.                   Andre Previn                          $232,821.78                24,900.7250                $188.58

New York, U.S.                   Samuel Jefferson                       $99,989.99                10,694.1170                $131.98

New York, U.S.                   John Adams                            $111,978.78                11,976.3400                 $58.22

New York, U.S.                   Cheryl Studer                         $301,491.78                32,245.1100                $397.96

New York, U.S.                   Renee Fleming                         $331,121.78                35,414.0940                $268.20

New York, U.S.                   Birgit Nilsson                         $33,194.48                 3,550.2120                 $43.81

New York, U.S.                   Christa Ludwig                        $113,391.74                12,127.4590                 $58.96

New York, U.S.                   James Conlon                           $99,939.99                10,688.7690                $131.92

New York, U.S.                   Leonard Bernstein                     $111,913.78                11,969.3880                 $90.65

Paris, France                    Napoleon Bonaparte                  $1,007,309.30               107,733.6150              $1,329.64

Paris, France                    Claude Monet                        $3,001,251.86               320,989.5040              $3,961.65

Paris, France                    Olivier Messiaen                      $300,141.60                32,100.7060                $156.07

Paris, France                    Claude Debussy                        $930,781.55                99,548.8290                $484.00

04/08/2024                                       WASHINGTON & LINCOLN INVESTMENTS                                          PAGE:   5
10:09 PM                                        BROKER SALES AND COMMISSIONS REPORT                                JOBNAME: KC03AE4A

                                                       SHARE PRICE:  $9.35                                                          

BRANCH NAME                      BROKER NAME                        DEPOSIT AMOUNT              SHARE AMOUNT              COMMISSION
--------------------             -------------------------          --------------         ------------------          -------------

Paris, France                    Maurice Ravel                       $1,003,012.22               107,274.0340                $812.43

Paris, France                    Edith Piaf                            $263,340.33                28,164.7410                $213.30

Paris, France                    Coco Chanel                           $226,130.54                24,185.0840                $298.49

Sao Paulo, Brazil                Joao Castagneto                         $3,103.55                   331.9300                  $4.09

Sao Paulo, Brazil                Lasar Segall                            $6,105.37                   652.9810                  $3.17

Sao Paulo, Brazil                Tarsila do Amaral                     $300,010.58                32,086.6930                $396.01

Sao Paulo, Brazil                Eliseu Visconti                        $32,230.54                 3,447.1170                 $26.10

Rome, Italy                      Julius Caesar                         $203,410.65                21,755.1500                $268.50

Rome, Italy                      Franco Sinatra                          $4,310.55                   461.0210                  $5.68

Rome, Italy                      Giacomo Puccini                        $30,460.45                 3,257.8020                 $40.20

Rome, Italy                      Enrico Caruso                          $88,413.35                 9,455.9730                $116.70

Rome, Italy                      Sofia Loren                           $900,415.25                96,301.0960              $1,188.54

Sydney, Australia                Milton Sheppard                        $90,460.65                 9,674.9360                 $73.27

Sydney, Australia                Shelley Boughton                        $9,810.58                 1,049.2600                  $7.94

Sydney, Australia                Joan Sutherland                         $2,910.55                   311.2890                  $3.84

Sydney, Australia                Barry Tuckwell                          $9,190.54                   982.9450                  $7.44

Sydney, Australia                Cayla Smithe                            $2,109.59                   225.6250                  $1.09

Sydney, Australia                Benjamin Britten                        $4,105.94                   439.1380                  $5.41

04/08/2024                                       WASHINGTON & LINCOLN INVESTMENTS                                          PAGE:   6
10:09 PM                                        BROKER SALES AND COMMISSIONS REPORT                                JOBNAME: KC03AE4A

                                                       SHARE PRICE:  $9.35                                                          

BRANCH NAME                      BROKER NAME                        DEPOSIT AMOUNT              SHARE AMOUNT              COMMISSION
--------------------             -------------------------          --------------         ------------------          -------------

Sydney, Australia                Peter Pears                             $4,930.56                   527.3330                  $2.56

Sydney, Australia                Paul Gray                              $90,310.45                 9,658.8720                $119.20

Vienna, Austria                  Herbert von Karajan                     $9,580.28                 1,024.6290                  $7.76

Vienna, Austria                  Franz Joseph Haydn                      $5,890.30                   629.9790                  $4.77

Vienna, Austria                  Josef Strauss                          $15,809.48                 1,690.8530                 $12.80

Vienna, Austria                  Karl Boehm                            $505,808.96                54,097.2150                $409.70

Vienna, Austria                  Elisabeth Schwarzkopf                  $12,480.29                 1,334.7900                 $10.10

Vienna, Austria                  Franz Peter Schubert                    $9,831.05                 1,051.4490                  $7.96

Zurich, Switzerland              Earl Grey                             $400,058.01                42,786.9530                $528.07

Zurich, Switzerland              Diana Kensington                       $87,057.55                 9,310.9680                $114.91

Zurich, Switzerland              Axel Vondenberg                        $30,759.01                 3,289.7340                 $15.99

Zurich, Switzerland              Ute Schweitzer                        $147,058.00                15,728.1280                $194.11

Zurich, Switzerland              Rene Jacobs                            $72,558.00                 7,760.2140                 $58.77

Zurich, Switzerland              Anton Bruckner                         $99,999.99                10,695.1860                 $52.00

04/08/2024                                       WASHINGTON & LINCOLN INVESTMENTS                                          PAGE:   7
10:09 PM                                        BROKER SALES AND COMMISSIONS REPORT                                JOBNAME: KC03AE4A

                                                       SHARE PRICE:  $9.35                                                          

                                       NUMBER OF SALES         TOTAL SALES AMOUNT         TOTAL SHARE AMOUNT        TOTAL COMMISSION
                                       ---------------         ------------------     ----------------------      ------------------

                                                   104             $53,080,482.42             5,677,056.9440              $51,000.29

04/08/2024                                       WASHINGTON & LINCOLN INVESTMENTS                                          PAGE:   1
10:09 PM                                        BROKER SALES AND COMMISSIONS REPORT                                JOBNAME: KC03AE4A

                                                       SHARE PRICE:  $9.35                                                          

                                        HIGH SALES BROKER NAME          HIGH SALES SHARE AMOUNT                                     
                                     -------------------------          -----------------------                                     

                                     Wilhelm Furtwaengler                           76,643.3090                                     

                                     Eugen Jochum                                1,069,518.7160                                     

                                     Maurizio Damilano                             427,816.1520                                     

                                     Adam Dieffenbach                               64,901.1130                                     

                                     Mao Zedong                                     65,093.8100                                     

                                     Zhou Enlai                                     65,055.2000                                     

                                     Zhau Ziyang                                    74,681.9380                                     

                                     Chiang Kai-shek                               280,030.1200                                     

                                     Simon Draper                                   68,537.0300                                     

                                     Elizabeth Windsor                              76,416.2940                                     

                                     Andrew Windsor                                 70,706.1220                                     

                                     Michael Windsor                               114,049.4390                                     

                                     Catherine Monteiro                          1,069,518.7160                                     

                                     Jason Landau                                   53,476.0190                                     

                                     Napoleon Bonaparte                            107,733.6150                                     

                                     Claude Monet                                  320,989.5040                                     

                                     Claude Debussy                                 99,548.8290                                     

                                     Maurice Ravel                                 107,274.0340                                     

04/08/2024                                       WASHINGTON & LINCOLN INVESTMENTS                                          PAGE:   2
10:09 PM                                        BROKER SALES AND COMMISSIONS REPORT                                JOBNAME: KC03AE4A

                                                       SHARE PRICE:  $9.35                                                          

                                        HIGH SALES BROKER NAME          HIGH SALES SHARE AMOUNT                                     
                                     -------------------------          -----------------------                                     

                                     Sofia Loren                                    96,301.0960                                     

                                     Karl Boehm                                     54,097.2150                                     

04/08/2024                                       WASHINGTON & LINCOLN INVESTMENTS                                          PAGE:   3
10:09 PM                                        BROKER SALES AND COMMISSIONS REPORT                                JOBNAME: KC03AE4A

                                                       SHARE PRICE:  $9.35                                                          

                                  NUMBER OF HIGH SALES BROKERS    TOTAL HIGH SALES SHARE AMOUNT                                     
                                  ----------------------------    -----------------------------                                     

                                                            20                   4,362,388.2710                                     

